ARM GAS  C:\Users\AHMADN~1\AppData\Local\Temp\ccda6NAt.s 			page 1


   1              		.syntax unified
   2              		.cpu cortex-m3
   3              		.fpu softvfp
   4              		.eabi_attribute 20, 1
   5              		.eabi_attribute 21, 1
   6              		.eabi_attribute 23, 3
   7              		.eabi_attribute 24, 1
   8              		.eabi_attribute 25, 1
   9              		.eabi_attribute 26, 1
  10              		.eabi_attribute 30, 6
  11              		.eabi_attribute 34, 1
  12              		.eabi_attribute 18, 4
  13              		.thumb
  14              		.syntax unified
  15              		.file	"CapSense_Controller_SMS_Wrapper.c"
  16              		.text
  17              	.Ltext0:
  18              		.cfi_sections	.debug_frame
  19              		.global	SMS_LIB_noiseThreshold
  20              		.data
  21              		.align	2
  22              		.type	SMS_LIB_noiseThreshold, %object
  23              		.size	SMS_LIB_noiseThreshold, 4
  24              	SMS_LIB_noiseThreshold:
  25 0000 00000000 		.word	CapSense_Controller_noiseThreshold
  26              		.global	SMS_LIB_hysteresis
  27              		.align	2
  28              		.type	SMS_LIB_hysteresis, %object
  29              		.size	SMS_LIB_hysteresis, 4
  30              	SMS_LIB_hysteresis:
  31 0004 00000000 		.word	CapSense_Controller_hysteresis
  32              		.global	SMS_LIB_widgetResolution
  33              		.align	2
  34              		.type	SMS_LIB_widgetResolution, %object
  35              		.size	SMS_LIB_widgetResolution, 4
  36              	SMS_LIB_widgetResolution:
  37 0008 00000000 		.word	CapSense_Controller_widgetResolution
  38              		.global	SMS_LIB_widgetNumber
  39              		.align	2
  40              		.type	SMS_LIB_widgetNumber, %object
  41              		.size	SMS_LIB_widgetNumber, 4
  42              	SMS_LIB_widgetNumber:
  43 000c 00000000 		.word	CapSense_Controller_widgetNumber
  44              		.global	SMS_LIB_numberOfSensors
  45              		.align	2
  46              		.type	SMS_LIB_numberOfSensors, %object
  47              		.size	SMS_LIB_numberOfSensors, 4
  48              	SMS_LIB_numberOfSensors:
  49 0010 00000000 		.word	CapSense_Controller_numberOfSensors
  50              		.global	SMS_LIB_rawDataIndex
  51              		.align	2
  52              		.type	SMS_LIB_rawDataIndex, %object
  53              		.size	SMS_LIB_rawDataIndex, 4
  54              	SMS_LIB_rawDataIndex:
  55 0014 00000000 		.word	CapSense_Controller_rawDataIndex
  56              		.global	SMS_LIB_fingerThreshold
  57              		.align	2
ARM GAS  C:\Users\AHMADN~1\AppData\Local\Temp\ccda6NAt.s 			page 2


  58              		.type	SMS_LIB_fingerThreshold, %object
  59              		.size	SMS_LIB_fingerThreshold, 4
  60              	SMS_LIB_fingerThreshold:
  61 0018 00000000 		.word	CapSense_Controller_fingerThreshold
  62              		.global	SMS_LIB_idacSettings
  63              		.align	2
  64              		.type	SMS_LIB_idacSettings, %object
  65              		.size	SMS_LIB_idacSettings, 4
  66              	SMS_LIB_idacSettings:
  67 001c 00000000 		.word	CapSense_Controller_idacSettings
  68              		.global	SMS_LIB_prescaler
  69              		.align	2
  70              		.type	SMS_LIB_prescaler, %object
  71              		.size	SMS_LIB_prescaler, 4
  72              	SMS_LIB_prescaler:
  73 0020 00000000 		.word	CapSense_Controller_analogSwitchDivider
  74              		.global	SMS_LIB_SensorRaw
  75              		.align	2
  76              		.type	SMS_LIB_SensorRaw, %object
  77              		.size	SMS_LIB_SensorRaw, 4
  78              	SMS_LIB_SensorRaw:
  79 0024 00000000 		.word	CapSense_Controller_sensorRaw
  80              		.global	SMS_LIB_SensorBaseline
  81              		.align	2
  82              		.type	SMS_LIB_SensorBaseline, %object
  83              		.size	SMS_LIB_SensorBaseline, 4
  84              	SMS_LIB_SensorBaseline:
  85 0028 00000000 		.word	CapSense_Controller_sensorBaseline
  86              		.global	SMS_LIB_SensorSensitivity
  87              		.section	.rodata
  88              		.align	2
  89              		.type	SMS_LIB_SensorSensitivity, %object
  90              		.size	SMS_LIB_SensorSensitivity, 4
  91              	SMS_LIB_SensorSensitivity:
  92 0000 02       		.byte	2
  93 0001 02       		.byte	2
  94 0002 02       		.byte	2
  95 0003 02       		.byte	2
  96              		.global	SMS_LIB_PrescalerTbl
  97              		.align	2
  98              		.type	SMS_LIB_PrescalerTbl, %object
  99              		.size	SMS_LIB_PrescalerTbl, 32
 100              	SMS_LIB_PrescalerTbl:
 101 0004 01       		.byte	1
 102 0005 01       		.byte	1
 103 0006 01       		.byte	1
 104 0007 01       		.byte	1
 105 0008 01       		.byte	1
 106 0009 01       		.byte	1
 107 000a 01       		.byte	1
 108 000b 01       		.byte	1
 109 000c 01       		.byte	1
 110 000d 01       		.byte	1
 111 000e 01       		.byte	1
 112 000f 01       		.byte	1
 113 0010 01       		.byte	1
 114 0011 01       		.byte	1
ARM GAS  C:\Users\AHMADN~1\AppData\Local\Temp\ccda6NAt.s 			page 3


 115 0012 01       		.byte	1
 116 0013 01       		.byte	1
 117 0014 01       		.byte	1
 118 0015 02       		.byte	2
 119 0016 02       		.byte	2
 120 0017 02       		.byte	2
 121 0018 02       		.byte	2
 122 0019 02       		.byte	2
 123 001a 02       		.byte	2
 124 001b 02       		.byte	2
 125 001c 02       		.byte	2
 126 001d 02       		.byte	2
 127 001e 02       		.byte	2
 128 001f 02       		.byte	2
 129 0020 02       		.byte	2
 130 0021 02       		.byte	2
 131 0022 02       		.byte	2
 132 0023 02       		.byte	2
 133              		.comm	SMS_LIB_Table2,4,4
 134              		.comm	SMS_LIB_Table3,4,4
 135              		.comm	SMS_LIB_Table4,8,4
 136              		.comm	SMS_LIB_Table5,8,4
 137              		.comm	SMS_LIB_Table6,4,4
 138              		.comm	SMS_LIB_Table7,4,4
 139              		.comm	SMS_LIB_Table8,4,4
 140              		.comm	SMS_LIB_Table9,4,4
 141              		.global	SMS_LIB_Var1
 142              		.data
 143              		.type	SMS_LIB_Var1, %object
 144              		.size	SMS_LIB_Var1, 1
 145              	SMS_LIB_Var1:
 146 002c 01       		.byte	1
 147              		.global	SMS_LIB_Var2
 148 002d 00       		.align	1
 149              		.type	SMS_LIB_Var2, %object
 150              		.size	SMS_LIB_Var2, 2
 151              	SMS_LIB_Var2:
 152 002e 751F     		.short	8053
 153              		.global	SMS_LIB_TotalSnsCnt
 154              		.type	SMS_LIB_TotalSnsCnt, %object
 155              		.size	SMS_LIB_TotalSnsCnt, 1
 156              	SMS_LIB_TotalSnsCnt:
 157 0030 04       		.byte	4
 158              		.global	SMS_LIB_TotalScanSlCnt
 159              		.type	SMS_LIB_TotalScanSlCnt, %object
 160              		.size	SMS_LIB_TotalScanSlCnt, 1
 161              	SMS_LIB_TotalScanSlCnt:
 162 0031 04       		.byte	4
 163              		.global	SMS_LIB_EndOfWidgInd
 164              		.type	SMS_LIB_EndOfWidgInd, %object
 165              		.size	SMS_LIB_EndOfWidgInd, 1
 166              	SMS_LIB_EndOfWidgInd:
 167 0032 04       		.byte	4
 168              		.global	SMS_LIB_TotalSnsCnt_CH0
 169              		.bss
 170              		.type	SMS_LIB_TotalSnsCnt_CH0, %object
 171              		.size	SMS_LIB_TotalSnsCnt_CH0, 1
ARM GAS  C:\Users\AHMADN~1\AppData\Local\Temp\ccda6NAt.s 			page 4


 172              	SMS_LIB_TotalSnsCnt_CH0:
 173 0000 00       		.space	1
 174              		.global	SMS_LIB_TotalSnsCnt_CH1
 175              		.type	SMS_LIB_TotalSnsCnt_CH1, %object
 176              		.size	SMS_LIB_TotalSnsCnt_CH1, 1
 177              	SMS_LIB_TotalSnsCnt_CH1:
 178 0001 00       		.space	1
 179              		.section	.text.SMS_LIB_ScanSensor,"ax",%progbits
 180              		.align	2
 181              		.global	SMS_LIB_ScanSensor
 182              		.thumb
 183              		.thumb_func
 184              		.type	SMS_LIB_ScanSensor, %function
 185              	SMS_LIB_ScanSensor:
 186              	.LFB0:
 187              		.file 1 "Generated_Source\\PSoC5\\CapSense_Controller_SMS_Wrapper.c"
   1:Generated_Source\PSoC5/CapSense_Controller_SMS_Wrapper.c **** /*******************************************************************************
   2:Generated_Source\PSoC5/CapSense_Controller_SMS_Wrapper.c **** * File Name: CapSense_Controller_SMS_Wrapper.c
   3:Generated_Source\PSoC5/CapSense_Controller_SMS_Wrapper.c **** * Version 3.50
   4:Generated_Source\PSoC5/CapSense_Controller_SMS_Wrapper.c **** *
   5:Generated_Source\PSoC5/CapSense_Controller_SMS_Wrapper.c **** * Description:
   6:Generated_Source\PSoC5/CapSense_Controller_SMS_Wrapper.c **** *  This file provides the source code of wrapper between CapSense CSD component 
   7:Generated_Source\PSoC5/CapSense_Controller_SMS_Wrapper.c **** *  and Auto Tuning library.
   8:Generated_Source\PSoC5/CapSense_Controller_SMS_Wrapper.c **** *
   9:Generated_Source\PSoC5/CapSense_Controller_SMS_Wrapper.c **** * Note:
  10:Generated_Source\PSoC5/CapSense_Controller_SMS_Wrapper.c **** *
  11:Generated_Source\PSoC5/CapSense_Controller_SMS_Wrapper.c **** ********************************************************************************
  12:Generated_Source\PSoC5/CapSense_Controller_SMS_Wrapper.c **** * Copyright 2008-2012, Cypress Semiconductor Corporation.  All rights reserved.
  13:Generated_Source\PSoC5/CapSense_Controller_SMS_Wrapper.c **** * You may use this file only in accordance with the license, terms, conditions,
  14:Generated_Source\PSoC5/CapSense_Controller_SMS_Wrapper.c **** * disclaimers, and limitations in the end user license agreement accompanying
  15:Generated_Source\PSoC5/CapSense_Controller_SMS_Wrapper.c **** * the software package with which this file was provided.
  16:Generated_Source\PSoC5/CapSense_Controller_SMS_Wrapper.c **** *******************************************************************************/
  17:Generated_Source\PSoC5/CapSense_Controller_SMS_Wrapper.c **** 
  18:Generated_Source\PSoC5/CapSense_Controller_SMS_Wrapper.c **** #include "CapSense_Controller.h"
  19:Generated_Source\PSoC5/CapSense_Controller_SMS_Wrapper.c **** #include "CapSense_Controller_CSHL.h"
  20:Generated_Source\PSoC5/CapSense_Controller_SMS_Wrapper.c **** 
  21:Generated_Source\PSoC5/CapSense_Controller_SMS_Wrapper.c **** #if (CapSense_Controller_TUNING_METHOD == CapSense_Controller_AUTO_TUNING)
  22:Generated_Source\PSoC5/CapSense_Controller_SMS_Wrapper.c **** 
  23:Generated_Source\PSoC5/CapSense_Controller_SMS_Wrapper.c **** extern uint8 CapSense_Controller_noiseThreshold[CapSense_Controller_WIDGET_CSHL_PARAMETERS_COUNT];
  24:Generated_Source\PSoC5/CapSense_Controller_SMS_Wrapper.c **** extern uint8 CapSense_Controller_hysteresis[CapSense_Controller_WIDGET_CSHL_PARAMETERS_COUNT];
  25:Generated_Source\PSoC5/CapSense_Controller_SMS_Wrapper.c **** extern uint8 CapSense_Controller_widgetResolution[CapSense_Controller_WIDGET_RESOLUTION_PARAMETERS_
  26:Generated_Source\PSoC5/CapSense_Controller_SMS_Wrapper.c **** extern const uint8 CYCODE CapSense_Controller_numberOfSensors[CapSense_Controller_SENSORS_TBL_SIZE]
  27:Generated_Source\PSoC5/CapSense_Controller_SMS_Wrapper.c **** extern const uint8 CYCODE CapSense_Controller_rawDataIndex[CapSense_Controller_SENSORS_TBL_SIZE];
  28:Generated_Source\PSoC5/CapSense_Controller_SMS_Wrapper.c **** 
  29:Generated_Source\PSoC5/CapSense_Controller_SMS_Wrapper.c **** extern uint8 CapSense_Controller_fingerThreshold[CapSense_Controller_WIDGET_CSHL_PARAMETERS_COUNT];
  30:Generated_Source\PSoC5/CapSense_Controller_SMS_Wrapper.c **** extern uint8 CapSense_Controller_idacSettings[CapSense_Controller_TOTAL_SENSOR_COUNT];
  31:Generated_Source\PSoC5/CapSense_Controller_SMS_Wrapper.c **** extern uint8 CapSense_Controller_analogSwitchDivider[CapSense_Controller_TOTAL_SCANSLOT_COUNT];
  32:Generated_Source\PSoC5/CapSense_Controller_SMS_Wrapper.c **** 
  33:Generated_Source\PSoC5/CapSense_Controller_SMS_Wrapper.c **** extern void SMS_LIB_V3_50_CalculateThresholds(uint8 SensorNumber);
  34:Generated_Source\PSoC5/CapSense_Controller_SMS_Wrapper.c **** extern void SMS_LIB_V3_50_AutoTune1Ch(void);
  35:Generated_Source\PSoC5/CapSense_Controller_SMS_Wrapper.c **** extern void SMS_LIB_V3_50_AutoTune2Ch(void);
  36:Generated_Source\PSoC5/CapSense_Controller_SMS_Wrapper.c **** 
  37:Generated_Source\PSoC5/CapSense_Controller_SMS_Wrapper.c **** uint8  * SMS_LIB_noiseThreshold = CapSense_Controller_noiseThreshold;
  38:Generated_Source\PSoC5/CapSense_Controller_SMS_Wrapper.c **** uint8 * SMS_LIB_hysteresis = CapSense_Controller_hysteresis;
  39:Generated_Source\PSoC5/CapSense_Controller_SMS_Wrapper.c **** 
  40:Generated_Source\PSoC5/CapSense_Controller_SMS_Wrapper.c **** uint8 * SMS_LIB_widgetResolution = CapSense_Controller_widgetResolution;
  41:Generated_Source\PSoC5/CapSense_Controller_SMS_Wrapper.c **** 
ARM GAS  C:\Users\AHMADN~1\AppData\Local\Temp\ccda6NAt.s 			page 5


  42:Generated_Source\PSoC5/CapSense_Controller_SMS_Wrapper.c **** const uint8 CYCODE * SMS_LIB_widgetNumber = CapSense_Controller_widgetNumber;
  43:Generated_Source\PSoC5/CapSense_Controller_SMS_Wrapper.c **** const uint8 CYCODE * SMS_LIB_numberOfSensors = CapSense_Controller_numberOfSensors;
  44:Generated_Source\PSoC5/CapSense_Controller_SMS_Wrapper.c **** const uint8 CYCODE * SMS_LIB_rawDataIndex = CapSense_Controller_rawDataIndex;
  45:Generated_Source\PSoC5/CapSense_Controller_SMS_Wrapper.c **** 
  46:Generated_Source\PSoC5/CapSense_Controller_SMS_Wrapper.c **** uint8 * SMS_LIB_fingerThreshold = CapSense_Controller_fingerThreshold;
  47:Generated_Source\PSoC5/CapSense_Controller_SMS_Wrapper.c **** uint8 * SMS_LIB_idacSettings = CapSense_Controller_idacSettings;
  48:Generated_Source\PSoC5/CapSense_Controller_SMS_Wrapper.c **** uint8 * SMS_LIB_prescaler = CapSense_Controller_analogSwitchDivider;
  49:Generated_Source\PSoC5/CapSense_Controller_SMS_Wrapper.c **** 
  50:Generated_Source\PSoC5/CapSense_Controller_SMS_Wrapper.c **** uint16 * SMS_LIB_SensorRaw = CapSense_Controller_sensorRaw;
  51:Generated_Source\PSoC5/CapSense_Controller_SMS_Wrapper.c **** uint16 * SMS_LIB_SensorBaseline = CapSense_Controller_sensorBaseline;
  52:Generated_Source\PSoC5/CapSense_Controller_SMS_Wrapper.c **** 
  53:Generated_Source\PSoC5/CapSense_Controller_SMS_Wrapper.c **** const uint8 CYCODE SMS_LIB_SensorSensitivity[] = {
  54:Generated_Source\PSoC5/CapSense_Controller_SMS_Wrapper.c ****     2, 2, 2, 2, 
  55:Generated_Source\PSoC5/CapSense_Controller_SMS_Wrapper.c **** };
  56:Generated_Source\PSoC5/CapSense_Controller_SMS_Wrapper.c **** 
  57:Generated_Source\PSoC5/CapSense_Controller_SMS_Wrapper.c **** 
  58:Generated_Source\PSoC5/CapSense_Controller_SMS_Wrapper.c **** const uint8 CYCODE SMS_LIB_PrescalerTbl[] = {
  59:Generated_Source\PSoC5/CapSense_Controller_SMS_Wrapper.c ****     1u, 1u, 1u, 1u, 1u, 1u, 1u, 1u, 1u, 1u, 1u, 1u, 1u, 1u, 1u, 1u, 1u, 2u, 2u, 2u, 2u, 2u, 2u, 2u,
  60:Generated_Source\PSoC5/CapSense_Controller_SMS_Wrapper.c **** };
  61:Generated_Source\PSoC5/CapSense_Controller_SMS_Wrapper.c **** 
  62:Generated_Source\PSoC5/CapSense_Controller_SMS_Wrapper.c **** 
  63:Generated_Source\PSoC5/CapSense_Controller_SMS_Wrapper.c **** 
  64:Generated_Source\PSoC5/CapSense_Controller_SMS_Wrapper.c **** uint8 SMS_LIB_Table2[CapSense_Controller_TOTAL_SENSOR_COUNT];
  65:Generated_Source\PSoC5/CapSense_Controller_SMS_Wrapper.c **** uint8 SMS_LIB_Table3[CapSense_Controller_TOTAL_SENSOR_COUNT];
  66:Generated_Source\PSoC5/CapSense_Controller_SMS_Wrapper.c **** uint16 SMS_LIB_Table4[CapSense_Controller_TOTAL_SENSOR_COUNT];
  67:Generated_Source\PSoC5/CapSense_Controller_SMS_Wrapper.c **** uint16 SMS_LIB_Table5[CapSense_Controller_TOTAL_SENSOR_COUNT];
  68:Generated_Source\PSoC5/CapSense_Controller_SMS_Wrapper.c **** uint8 SMS_LIB_Table6[CapSense_Controller_TOTAL_SENSOR_COUNT];
  69:Generated_Source\PSoC5/CapSense_Controller_SMS_Wrapper.c **** uint8 SMS_LIB_Table7[CapSense_Controller_TOTAL_SENSOR_COUNT];
  70:Generated_Source\PSoC5/CapSense_Controller_SMS_Wrapper.c **** 
  71:Generated_Source\PSoC5/CapSense_Controller_SMS_Wrapper.c **** uint8 SMS_LIB_Table8[CapSense_Controller_END_OF_WIDGETS_INDEX];
  72:Generated_Source\PSoC5/CapSense_Controller_SMS_Wrapper.c **** uint8 SMS_LIB_Table9[CapSense_Controller_END_OF_WIDGETS_INDEX];
  73:Generated_Source\PSoC5/CapSense_Controller_SMS_Wrapper.c **** 
  74:Generated_Source\PSoC5/CapSense_Controller_SMS_Wrapper.c **** uint8 SMS_LIB_Var1 = (1u);
  75:Generated_Source\PSoC5/CapSense_Controller_SMS_Wrapper.c **** uint16 SMS_LIB_Var2 = (8053u);
  76:Generated_Source\PSoC5/CapSense_Controller_SMS_Wrapper.c **** 
  77:Generated_Source\PSoC5/CapSense_Controller_SMS_Wrapper.c **** uint8 SMS_LIB_TotalSnsCnt = CapSense_Controller_TOTAL_SENSOR_COUNT;
  78:Generated_Source\PSoC5/CapSense_Controller_SMS_Wrapper.c **** uint8 SMS_LIB_TotalScanSlCnt = CapSense_Controller_TOTAL_SCANSLOT_COUNT;
  79:Generated_Source\PSoC5/CapSense_Controller_SMS_Wrapper.c **** uint8 SMS_LIB_EndOfWidgInd = CapSense_Controller_END_OF_WIDGETS_INDEX;
  80:Generated_Source\PSoC5/CapSense_Controller_SMS_Wrapper.c **** 
  81:Generated_Source\PSoC5/CapSense_Controller_SMS_Wrapper.c **** #if (CapSense_Controller_DESIGN_TYPE == CapSense_Controller_TWO_CHANNELS_DESIGN)
  82:Generated_Source\PSoC5/CapSense_Controller_SMS_Wrapper.c ****     uint8 SMS_LIB_TotalSnsCnt_CH0 = CapSense_Controller_TOTAL_SENSOR_COUNT__CH0;
  83:Generated_Source\PSoC5/CapSense_Controller_SMS_Wrapper.c ****     uint8 SMS_LIB_TotalSnsCnt_CH1 = CapSense_Controller_TOTAL_SENSOR_COUNT__CH1;
  84:Generated_Source\PSoC5/CapSense_Controller_SMS_Wrapper.c **** #else
  85:Generated_Source\PSoC5/CapSense_Controller_SMS_Wrapper.c ****     uint8 SMS_LIB_TotalSnsCnt_CH0 = 0u;
  86:Generated_Source\PSoC5/CapSense_Controller_SMS_Wrapper.c ****     uint8 SMS_LIB_TotalSnsCnt_CH1 = 0u;
  87:Generated_Source\PSoC5/CapSense_Controller_SMS_Wrapper.c **** #endif  /* (CapSense_Controller_DESIGN_TYPE == CapSense_Controller_TWO_CHANNELS_DESIGN) */
  88:Generated_Source\PSoC5/CapSense_Controller_SMS_Wrapper.c **** 
  89:Generated_Source\PSoC5/CapSense_Controller_SMS_Wrapper.c **** /*******************************************************************************
  90:Generated_Source\PSoC5/CapSense_Controller_SMS_Wrapper.c **** * Function Name: SMS_LIB_ScanSensor
  91:Generated_Source\PSoC5/CapSense_Controller_SMS_Wrapper.c **** ********************************************************************************
  92:Generated_Source\PSoC5/CapSense_Controller_SMS_Wrapper.c **** *
  93:Generated_Source\PSoC5/CapSense_Controller_SMS_Wrapper.c **** * Summary:
  94:Generated_Source\PSoC5/CapSense_Controller_SMS_Wrapper.c **** *  Wrapper to CapSense_Controller_ScanSensor function.
  95:Generated_Source\PSoC5/CapSense_Controller_SMS_Wrapper.c **** *
  96:Generated_Source\PSoC5/CapSense_Controller_SMS_Wrapper.c **** * Parameters:
  97:Generated_Source\PSoC5/CapSense_Controller_SMS_Wrapper.c **** *  SensorNumber:  Sensor number.
  98:Generated_Source\PSoC5/CapSense_Controller_SMS_Wrapper.c **** *
ARM GAS  C:\Users\AHMADN~1\AppData\Local\Temp\ccda6NAt.s 			page 6


  99:Generated_Source\PSoC5/CapSense_Controller_SMS_Wrapper.c **** * Return:
 100:Generated_Source\PSoC5/CapSense_Controller_SMS_Wrapper.c **** *  None
 101:Generated_Source\PSoC5/CapSense_Controller_SMS_Wrapper.c **** *
 102:Generated_Source\PSoC5/CapSense_Controller_SMS_Wrapper.c **** * Reentrant:
 103:Generated_Source\PSoC5/CapSense_Controller_SMS_Wrapper.c **** *  No
 104:Generated_Source\PSoC5/CapSense_Controller_SMS_Wrapper.c **** *
 105:Generated_Source\PSoC5/CapSense_Controller_SMS_Wrapper.c **** *******************************************************************************/
 106:Generated_Source\PSoC5/CapSense_Controller_SMS_Wrapper.c **** void SMS_LIB_ScanSensor(uint8 SensorNumber) 
 107:Generated_Source\PSoC5/CapSense_Controller_SMS_Wrapper.c **** {
 188              		.loc 1 107 0
 189              		.cfi_startproc
 190              		@ args = 0, pretend = 0, frame = 8
 191              		@ frame_needed = 1, uses_anonymous_args = 0
 192 0000 80B5     		push	{r7, lr}
 193              		.cfi_def_cfa_offset 8
 194              		.cfi_offset 7, -8
 195              		.cfi_offset 14, -4
 196 0002 82B0     		sub	sp, sp, #8
 197              		.cfi_def_cfa_offset 16
 198 0004 00AF     		add	r7, sp, #0
 199              		.cfi_def_cfa_register 7
 200 0006 0346     		mov	r3, r0
 201 0008 FB71     		strb	r3, [r7, #7]
 108:Generated_Source\PSoC5/CapSense_Controller_SMS_Wrapper.c ****     CapSense_Controller_ScanSensor(SensorNumber);
 202              		.loc 1 108 0
 203 000a FB79     		ldrb	r3, [r7, #7]	@ zero_extendqisi2
 204 000c 1846     		mov	r0, r3
 205 000e FFF7FEFF 		bl	CapSense_Controller_ScanSensor
 109:Generated_Source\PSoC5/CapSense_Controller_SMS_Wrapper.c **** }
 206              		.loc 1 109 0
 207 0012 00BF     		nop
 208 0014 0837     		adds	r7, r7, #8
 209              		.cfi_def_cfa_offset 8
 210 0016 BD46     		mov	sp, r7
 211              		.cfi_def_cfa_register 13
 212              		@ sp needed
 213 0018 80BD     		pop	{r7, pc}
 214              		.cfi_endproc
 215              	.LFE0:
 216              		.size	SMS_LIB_ScanSensor, .-SMS_LIB_ScanSensor
 217 001a 00BF     		.section	.text.SMS_LIB_IsBusy,"ax",%progbits
 218              		.align	2
 219              		.global	SMS_LIB_IsBusy
 220              		.thumb
 221              		.thumb_func
 222              		.type	SMS_LIB_IsBusy, %function
 223              	SMS_LIB_IsBusy:
 224              	.LFB1:
 110:Generated_Source\PSoC5/CapSense_Controller_SMS_Wrapper.c **** 
 111:Generated_Source\PSoC5/CapSense_Controller_SMS_Wrapper.c **** /*******************************************************************************
 112:Generated_Source\PSoC5/CapSense_Controller_SMS_Wrapper.c **** * Function Name: SMS_LIB_IsBusy
 113:Generated_Source\PSoC5/CapSense_Controller_SMS_Wrapper.c **** ********************************************************************************
 114:Generated_Source\PSoC5/CapSense_Controller_SMS_Wrapper.c **** *
 115:Generated_Source\PSoC5/CapSense_Controller_SMS_Wrapper.c **** * Summary:
 116:Generated_Source\PSoC5/CapSense_Controller_SMS_Wrapper.c **** *  Wrapper to CapSense_Controller_IsBusy function.
 117:Generated_Source\PSoC5/CapSense_Controller_SMS_Wrapper.c **** *  
 118:Generated_Source\PSoC5/CapSense_Controller_SMS_Wrapper.c **** * Parameters:
ARM GAS  C:\Users\AHMADN~1\AppData\Local\Temp\ccda6NAt.s 			page 7


 119:Generated_Source\PSoC5/CapSense_Controller_SMS_Wrapper.c **** *  None
 120:Generated_Source\PSoC5/CapSense_Controller_SMS_Wrapper.c **** *
 121:Generated_Source\PSoC5/CapSense_Controller_SMS_Wrapper.c **** * Return:
 122:Generated_Source\PSoC5/CapSense_Controller_SMS_Wrapper.c **** *  None
 123:Generated_Source\PSoC5/CapSense_Controller_SMS_Wrapper.c **** *
 124:Generated_Source\PSoC5/CapSense_Controller_SMS_Wrapper.c **** *******************************************************************************/
 125:Generated_Source\PSoC5/CapSense_Controller_SMS_Wrapper.c **** uint8 SMS_LIB_IsBusy(void) 
 126:Generated_Source\PSoC5/CapSense_Controller_SMS_Wrapper.c **** {
 225              		.loc 1 126 0
 226              		.cfi_startproc
 227              		@ args = 0, pretend = 0, frame = 0
 228              		@ frame_needed = 1, uses_anonymous_args = 0
 229 0000 80B5     		push	{r7, lr}
 230              		.cfi_def_cfa_offset 8
 231              		.cfi_offset 7, -8
 232              		.cfi_offset 14, -4
 233 0002 00AF     		add	r7, sp, #0
 234              		.cfi_def_cfa_register 7
 127:Generated_Source\PSoC5/CapSense_Controller_SMS_Wrapper.c ****     return CapSense_Controller_IsBusy();
 235              		.loc 1 127 0
 236 0004 FFF7FEFF 		bl	CapSense_Controller_IsBusy
 237 0008 0346     		mov	r3, r0
 128:Generated_Source\PSoC5/CapSense_Controller_SMS_Wrapper.c **** }
 238              		.loc 1 128 0
 239 000a 1846     		mov	r0, r3
 240 000c 80BD     		pop	{r7, pc}
 241              		.cfi_endproc
 242              	.LFE1:
 243              		.size	SMS_LIB_IsBusy, .-SMS_LIB_IsBusy
 244 000e 00BF     		.section	.text.CapSense_Controller_CalculateThresholds,"ax",%progbits
 245              		.align	2
 246              		.global	CapSense_Controller_CalculateThresholds
 247              		.thumb
 248              		.thumb_func
 249              		.type	CapSense_Controller_CalculateThresholds, %function
 250              	CapSense_Controller_CalculateThresholds:
 251              	.LFB2:
 129:Generated_Source\PSoC5/CapSense_Controller_SMS_Wrapper.c **** 
 130:Generated_Source\PSoC5/CapSense_Controller_SMS_Wrapper.c **** 
 131:Generated_Source\PSoC5/CapSense_Controller_SMS_Wrapper.c **** /*******************************************************************************
 132:Generated_Source\PSoC5/CapSense_Controller_SMS_Wrapper.c **** * Function Name: CapSense_Controller_CalculateThresholds
 133:Generated_Source\PSoC5/CapSense_Controller_SMS_Wrapper.c **** ********************************************************************************
 134:Generated_Source\PSoC5/CapSense_Controller_SMS_Wrapper.c **** *
 135:Generated_Source\PSoC5/CapSense_Controller_SMS_Wrapper.c **** * Summary:
 136:Generated_Source\PSoC5/CapSense_Controller_SMS_Wrapper.c **** *  Wrapper to SMS_LIB_CalculateThresholds function.
 137:Generated_Source\PSoC5/CapSense_Controller_SMS_Wrapper.c **** *
 138:Generated_Source\PSoC5/CapSense_Controller_SMS_Wrapper.c **** * Parameters:
 139:Generated_Source\PSoC5/CapSense_Controller_SMS_Wrapper.c **** *  SensorNumber:  Sensor number.
 140:Generated_Source\PSoC5/CapSense_Controller_SMS_Wrapper.c **** *
 141:Generated_Source\PSoC5/CapSense_Controller_SMS_Wrapper.c **** * Return:
 142:Generated_Source\PSoC5/CapSense_Controller_SMS_Wrapper.c **** *  None
 143:Generated_Source\PSoC5/CapSense_Controller_SMS_Wrapper.c **** *
 144:Generated_Source\PSoC5/CapSense_Controller_SMS_Wrapper.c **** * Reentrant:
 145:Generated_Source\PSoC5/CapSense_Controller_SMS_Wrapper.c **** *  No
 146:Generated_Source\PSoC5/CapSense_Controller_SMS_Wrapper.c **** *
 147:Generated_Source\PSoC5/CapSense_Controller_SMS_Wrapper.c **** *******************************************************************************/
 148:Generated_Source\PSoC5/CapSense_Controller_SMS_Wrapper.c **** void CapSense_Controller_CalculateThresholds(uint8 SensorNumber) 
ARM GAS  C:\Users\AHMADN~1\AppData\Local\Temp\ccda6NAt.s 			page 8


 149:Generated_Source\PSoC5/CapSense_Controller_SMS_Wrapper.c **** {
 252              		.loc 1 149 0
 253              		.cfi_startproc
 254              		@ args = 0, pretend = 0, frame = 8
 255              		@ frame_needed = 1, uses_anonymous_args = 0
 256 0000 80B5     		push	{r7, lr}
 257              		.cfi_def_cfa_offset 8
 258              		.cfi_offset 7, -8
 259              		.cfi_offset 14, -4
 260 0002 82B0     		sub	sp, sp, #8
 261              		.cfi_def_cfa_offset 16
 262 0004 00AF     		add	r7, sp, #0
 263              		.cfi_def_cfa_register 7
 264 0006 0346     		mov	r3, r0
 265 0008 FB71     		strb	r3, [r7, #7]
 150:Generated_Source\PSoC5/CapSense_Controller_SMS_Wrapper.c ****     SMS_LIB_V3_50_CalculateThresholds(SensorNumber);
 266              		.loc 1 150 0
 267 000a FB79     		ldrb	r3, [r7, #7]	@ zero_extendqisi2
 268 000c 1846     		mov	r0, r3
 269 000e FFF7FEFF 		bl	SMS_LIB_V3_50_CalculateThresholds
 151:Generated_Source\PSoC5/CapSense_Controller_SMS_Wrapper.c **** }
 270              		.loc 1 151 0
 271 0012 00BF     		nop
 272 0014 0837     		adds	r7, r7, #8
 273              		.cfi_def_cfa_offset 8
 274 0016 BD46     		mov	sp, r7
 275              		.cfi_def_cfa_register 13
 276              		@ sp needed
 277 0018 80BD     		pop	{r7, pc}
 278              		.cfi_endproc
 279              	.LFE2:
 280              		.size	CapSense_Controller_CalculateThresholds, .-CapSense_Controller_CalculateThresholds
 281 001a 00BF     		.section	.text.CapSense_Controller_AutoTune,"ax",%progbits
 282              		.align	2
 283              		.global	CapSense_Controller_AutoTune
 284              		.thumb
 285              		.thumb_func
 286              		.type	CapSense_Controller_AutoTune, %function
 287              	CapSense_Controller_AutoTune:
 288              	.LFB3:
 152:Generated_Source\PSoC5/CapSense_Controller_SMS_Wrapper.c **** 
 153:Generated_Source\PSoC5/CapSense_Controller_SMS_Wrapper.c **** 
 154:Generated_Source\PSoC5/CapSense_Controller_SMS_Wrapper.c **** /*******************************************************************************
 155:Generated_Source\PSoC5/CapSense_Controller_SMS_Wrapper.c **** * Function Name: CapSense_Controller_AutoTune
 156:Generated_Source\PSoC5/CapSense_Controller_SMS_Wrapper.c **** ********************************************************************************
 157:Generated_Source\PSoC5/CapSense_Controller_SMS_Wrapper.c **** *
 158:Generated_Source\PSoC5/CapSense_Controller_SMS_Wrapper.c **** * Summary:
 159:Generated_Source\PSoC5/CapSense_Controller_SMS_Wrapper.c **** *  Wrapper for SMS_LIB_AutoTune1Ch or SMS_LIB_AutoTune2Ch function.
 160:Generated_Source\PSoC5/CapSense_Controller_SMS_Wrapper.c **** *
 161:Generated_Source\PSoC5/CapSense_Controller_SMS_Wrapper.c **** * Parameters:
 162:Generated_Source\PSoC5/CapSense_Controller_SMS_Wrapper.c **** *  None
 163:Generated_Source\PSoC5/CapSense_Controller_SMS_Wrapper.c **** *
 164:Generated_Source\PSoC5/CapSense_Controller_SMS_Wrapper.c **** * Return:
 165:Generated_Source\PSoC5/CapSense_Controller_SMS_Wrapper.c **** *  None
 166:Generated_Source\PSoC5/CapSense_Controller_SMS_Wrapper.c **** *
 167:Generated_Source\PSoC5/CapSense_Controller_SMS_Wrapper.c **** * Reentrant:
 168:Generated_Source\PSoC5/CapSense_Controller_SMS_Wrapper.c **** *  No
ARM GAS  C:\Users\AHMADN~1\AppData\Local\Temp\ccda6NAt.s 			page 9


 169:Generated_Source\PSoC5/CapSense_Controller_SMS_Wrapper.c **** *
 170:Generated_Source\PSoC5/CapSense_Controller_SMS_Wrapper.c **** *******************************************************************************/
 171:Generated_Source\PSoC5/CapSense_Controller_SMS_Wrapper.c **** void CapSense_Controller_AutoTune(void) 
 172:Generated_Source\PSoC5/CapSense_Controller_SMS_Wrapper.c **** {
 289              		.loc 1 172 0
 290              		.cfi_startproc
 291              		@ args = 0, pretend = 0, frame = 0
 292              		@ frame_needed = 1, uses_anonymous_args = 0
 293 0000 80B5     		push	{r7, lr}
 294              		.cfi_def_cfa_offset 8
 295              		.cfi_offset 7, -8
 296              		.cfi_offset 14, -4
 297 0002 00AF     		add	r7, sp, #0
 298              		.cfi_def_cfa_register 7
 173:Generated_Source\PSoC5/CapSense_Controller_SMS_Wrapper.c ****     #if (CapSense_Controller_DESIGN_TYPE == CapSense_Controller_ONE_CHANNEL_DESIGN)
 174:Generated_Source\PSoC5/CapSense_Controller_SMS_Wrapper.c ****         SMS_LIB_V3_50_AutoTune1Ch();
 299              		.loc 1 174 0
 300 0004 FFF7FEFF 		bl	SMS_LIB_V3_50_AutoTune1Ch
 175:Generated_Source\PSoC5/CapSense_Controller_SMS_Wrapper.c ****     #elif (CapSense_Controller_DESIGN_TYPE == CapSense_Controller_TWO_CHANNELS_DESIGN)
 176:Generated_Source\PSoC5/CapSense_Controller_SMS_Wrapper.c ****         SMS_LIB_V3_50_AutoTune2Ch();
 177:Generated_Source\PSoC5/CapSense_Controller_SMS_Wrapper.c ****     #endif /* (CapSense_Controller_DESIGN_TYPE == CapSense_Controller_ONE_CHANNEL_DESIGN) */
 178:Generated_Source\PSoC5/CapSense_Controller_SMS_Wrapper.c **** }
 301              		.loc 1 178 0
 302 0008 00BF     		nop
 303 000a 80BD     		pop	{r7, pc}
 304              		.cfi_endproc
 305              	.LFE3:
 306              		.size	CapSense_Controller_AutoTune, .-CapSense_Controller_AutoTune
 307              		.section	.text.SMS_LIB_SetPrescaler,"ax",%progbits
 308              		.align	2
 309              		.global	SMS_LIB_SetPrescaler
 310              		.thumb
 311              		.thumb_func
 312              		.type	SMS_LIB_SetPrescaler, %function
 313              	SMS_LIB_SetPrescaler:
 314              	.LFB4:
 179:Generated_Source\PSoC5/CapSense_Controller_SMS_Wrapper.c **** 
 180:Generated_Source\PSoC5/CapSense_Controller_SMS_Wrapper.c **** /*******************************************************************************
 181:Generated_Source\PSoC5/CapSense_Controller_SMS_Wrapper.c **** * Function Name: SMS_LIB_SetPrescaler
 182:Generated_Source\PSoC5/CapSense_Controller_SMS_Wrapper.c **** ********************************************************************************
 183:Generated_Source\PSoC5/CapSense_Controller_SMS_Wrapper.c **** *
 184:Generated_Source\PSoC5/CapSense_Controller_SMS_Wrapper.c **** * Summary:
 185:Generated_Source\PSoC5/CapSense_Controller_SMS_Wrapper.c **** *  Empty wrapper for version compliance.
 186:Generated_Source\PSoC5/CapSense_Controller_SMS_Wrapper.c **** *
 187:Generated_Source\PSoC5/CapSense_Controller_SMS_Wrapper.c **** * Parameters:
 188:Generated_Source\PSoC5/CapSense_Controller_SMS_Wrapper.c **** *  prescaler:  prascaler value.
 189:Generated_Source\PSoC5/CapSense_Controller_SMS_Wrapper.c **** *
 190:Generated_Source\PSoC5/CapSense_Controller_SMS_Wrapper.c **** * Return:
 191:Generated_Source\PSoC5/CapSense_Controller_SMS_Wrapper.c **** *  None
 192:Generated_Source\PSoC5/CapSense_Controller_SMS_Wrapper.c **** *
 193:Generated_Source\PSoC5/CapSense_Controller_SMS_Wrapper.c **** *******************************************************************************/
 194:Generated_Source\PSoC5/CapSense_Controller_SMS_Wrapper.c **** void SMS_LIB_SetPrescaler(uint8 prescaler) 
 195:Generated_Source\PSoC5/CapSense_Controller_SMS_Wrapper.c **** {
 315              		.loc 1 195 0
 316              		.cfi_startproc
 317              		@ args = 0, pretend = 0, frame = 8
 318              		@ frame_needed = 1, uses_anonymous_args = 0
ARM GAS  C:\Users\AHMADN~1\AppData\Local\Temp\ccda6NAt.s 			page 10


 319              		@ link register save eliminated.
 320 0000 80B4     		push	{r7}
 321              		.cfi_def_cfa_offset 4
 322              		.cfi_offset 7, -4
 323 0002 83B0     		sub	sp, sp, #12
 324              		.cfi_def_cfa_offset 16
 325 0004 00AF     		add	r7, sp, #0
 326              		.cfi_def_cfa_register 7
 327 0006 0346     		mov	r3, r0
 328 0008 FB71     		strb	r3, [r7, #7]
 196:Generated_Source\PSoC5/CapSense_Controller_SMS_Wrapper.c ****     prescaler = prescaler;
 197:Generated_Source\PSoC5/CapSense_Controller_SMS_Wrapper.c **** }
 329              		.loc 1 197 0
 330 000a 00BF     		nop
 331 000c 0C37     		adds	r7, r7, #12
 332              		.cfi_def_cfa_offset 4
 333 000e BD46     		mov	sp, r7
 334              		.cfi_def_cfa_register 13
 335              		@ sp needed
 336 0010 80BC     		pop	{r7}
 337              		.cfi_restore 7
 338              		.cfi_def_cfa_offset 0
 339 0012 7047     		bx	lr
 340              		.cfi_endproc
 341              	.LFE4:
 342              		.size	SMS_LIB_SetPrescaler, .-SMS_LIB_SetPrescaler
 343              		.section	.text.SMS_LIB_V3_50_SetAnalogSwitchesSrc_PRS,"ax",%progbits
 344              		.align	2
 345              		.global	SMS_LIB_V3_50_SetAnalogSwitchesSrc_PRS
 346              		.thumb
 347              		.thumb_func
 348              		.type	SMS_LIB_V3_50_SetAnalogSwitchesSrc_PRS, %function
 349              	SMS_LIB_V3_50_SetAnalogSwitchesSrc_PRS:
 350              	.LFB5:
 198:Generated_Source\PSoC5/CapSense_Controller_SMS_Wrapper.c **** 
 199:Generated_Source\PSoC5/CapSense_Controller_SMS_Wrapper.c **** void SMS_LIB_V3_50_SetAnalogSwitchesSrc_PRS(void) 
 200:Generated_Source\PSoC5/CapSense_Controller_SMS_Wrapper.c **** {
 351              		.loc 1 200 0
 352              		.cfi_startproc
 353              		@ args = 0, pretend = 0, frame = 0
 354              		@ frame_needed = 1, uses_anonymous_args = 0
 355 0000 80B5     		push	{r7, lr}
 356              		.cfi_def_cfa_offset 8
 357              		.cfi_offset 7, -8
 358              		.cfi_offset 14, -4
 359 0002 00AF     		add	r7, sp, #0
 360              		.cfi_def_cfa_register 7
 201:Generated_Source\PSoC5/CapSense_Controller_SMS_Wrapper.c **** 	CapSense_Controller_SetAnalogSwitchesSource(CapSense_Controller_ANALOG_SWITCHES_SRC_PRS);
 361              		.loc 1 201 0
 362 0004 0220     		movs	r0, #2
 363 0006 FFF7FEFF 		bl	CapSense_Controller_SetAnalogSwitchesSource
 202:Generated_Source\PSoC5/CapSense_Controller_SMS_Wrapper.c **** }
 364              		.loc 1 202 0
 365 000a 00BF     		nop
 366 000c 80BD     		pop	{r7, pc}
 367              		.cfi_endproc
 368              	.LFE5:
ARM GAS  C:\Users\AHMADN~1\AppData\Local\Temp\ccda6NAt.s 			page 11


 369              		.size	SMS_LIB_V3_50_SetAnalogSwitchesSrc_PRS, .-SMS_LIB_V3_50_SetAnalogSwitchesSrc_PRS
 370 000e 00BF     		.section	.text.SMS_LIB_V3_50_SetAnalogSwitchesSrc_Prescaler,"ax",%progbits
 371              		.align	2
 372              		.global	SMS_LIB_V3_50_SetAnalogSwitchesSrc_Prescaler
 373              		.thumb
 374              		.thumb_func
 375              		.type	SMS_LIB_V3_50_SetAnalogSwitchesSrc_Prescaler, %function
 376              	SMS_LIB_V3_50_SetAnalogSwitchesSrc_Prescaler:
 377              	.LFB6:
 203:Generated_Source\PSoC5/CapSense_Controller_SMS_Wrapper.c **** 
 204:Generated_Source\PSoC5/CapSense_Controller_SMS_Wrapper.c **** void SMS_LIB_V3_50_SetAnalogSwitchesSrc_Prescaler(void) 
 205:Generated_Source\PSoC5/CapSense_Controller_SMS_Wrapper.c **** {
 378              		.loc 1 205 0
 379              		.cfi_startproc
 380              		@ args = 0, pretend = 0, frame = 0
 381              		@ frame_needed = 1, uses_anonymous_args = 0
 382 0000 80B5     		push	{r7, lr}
 383              		.cfi_def_cfa_offset 8
 384              		.cfi_offset 7, -8
 385              		.cfi_offset 14, -4
 386 0002 00AF     		add	r7, sp, #0
 387              		.cfi_def_cfa_register 7
 206:Generated_Source\PSoC5/CapSense_Controller_SMS_Wrapper.c **** 	CapSense_Controller_SetAnalogSwitchesSource(CapSense_Controller_ANALOG_SWITCHES_SRC_PRESCALER);
 388              		.loc 1 206 0
 389 0004 0120     		movs	r0, #1
 390 0006 FFF7FEFF 		bl	CapSense_Controller_SetAnalogSwitchesSource
 207:Generated_Source\PSoC5/CapSense_Controller_SMS_Wrapper.c **** }
 391              		.loc 1 207 0
 392 000a 00BF     		nop
 393 000c 80BD     		pop	{r7, pc}
 394              		.cfi_endproc
 395              	.LFE6:
 396              		.size	SMS_LIB_V3_50_SetAnalogSwitchesSrc_Prescaler, .-SMS_LIB_V3_50_SetAnalogSwitchesSrc_Prescaler
 397 000e 00BF     		.text
 398              	.Letext0:
 399              		.file 2 "Generated_Source\\PSoC5\\cytypes.h"
 400              		.file 3 "Generated_Source\\PSoC5\\CapSense_Controller.h"
 401              		.file 4 "Generated_Source\\PSoC5\\CapSense_Controller_CSHL.h"