ARM GAS  C:\Users\AHMADN~1\AppData\Local\Temp\ccrljUXp.s 			page 1


   1              		.syntax unified
   2              		.cpu cortex-m3
   3              		.fpu softvfp
   4              		.eabi_attribute 20, 1
   5              		.eabi_attribute 21, 1
   6              		.eabi_attribute 23, 3
   7              		.eabi_attribute 24, 1
   8              		.eabi_attribute 25, 1
   9              		.eabi_attribute 26, 1
  10              		.eabi_attribute 30, 6
  11              		.eabi_attribute 34, 1
  12              		.eabi_attribute 18, 4
  13              		.thumb
  14              		.syntax unified
  15              		.file	"CapSense_Controller_PM.c"
  16              		.text
  17              	.Ltext0:
  18              		.cfi_sections	.debug_frame
  19              		.global	CapSense_Controller_backup
  20              		.bss
  21              		.align	2
  22              		.type	CapSense_Controller_backup, %object
  23              		.size	CapSense_Controller_backup, 2
  24              	CapSense_Controller_backup:
  25 0000 0000     		.space	2
  26              		.section	.text.CapSense_Controller_SaveConfig,"ax",%progbits
  27              		.align	2
  28              		.global	CapSense_Controller_SaveConfig
  29              		.thumb
  30              		.thumb_func
  31              		.type	CapSense_Controller_SaveConfig, %function
  32              	CapSense_Controller_SaveConfig:
  33              	.LFB0:
  34              		.file 1 "Generated_Source\\PSoC5\\CapSense_Controller_PM.c"
   1:Generated_Source\PSoC5/CapSense_Controller_PM.c **** /*******************************************************************************
   2:Generated_Source\PSoC5/CapSense_Controller_PM.c **** * File Name: CapSense_Controller_PM.c
   3:Generated_Source\PSoC5/CapSense_Controller_PM.c **** * Version 3.50
   4:Generated_Source\PSoC5/CapSense_Controller_PM.c **** *
   5:Generated_Source\PSoC5/CapSense_Controller_PM.c **** * Description:
   6:Generated_Source\PSoC5/CapSense_Controller_PM.c **** *  This file provides Sleep APIs for CapSense CSD Component.
   7:Generated_Source\PSoC5/CapSense_Controller_PM.c **** *
   8:Generated_Source\PSoC5/CapSense_Controller_PM.c **** * Note:
   9:Generated_Source\PSoC5/CapSense_Controller_PM.c **** *
  10:Generated_Source\PSoC5/CapSense_Controller_PM.c **** ********************************************************************************
  11:Generated_Source\PSoC5/CapSense_Controller_PM.c **** * Copyright 2008-2013, Cypress Semiconductor Corporation.  All rights reserved.
  12:Generated_Source\PSoC5/CapSense_Controller_PM.c **** * You may use this file only in accordance with the license, terms, conditions, 
  13:Generated_Source\PSoC5/CapSense_Controller_PM.c **** * disclaimers, and limitations in the end user license agreement accompanying 
  14:Generated_Source\PSoC5/CapSense_Controller_PM.c **** * the software package with which this file was provided.
  15:Generated_Source\PSoC5/CapSense_Controller_PM.c **** *******************************************************************************/
  16:Generated_Source\PSoC5/CapSense_Controller_PM.c **** 
  17:Generated_Source\PSoC5/CapSense_Controller_PM.c **** #include "CapSense_Controller.h"
  18:Generated_Source\PSoC5/CapSense_Controller_PM.c **** 
  19:Generated_Source\PSoC5/CapSense_Controller_PM.c **** CapSense_Controller_BACKUP_STRUCT CapSense_Controller_backup =
  20:Generated_Source\PSoC5/CapSense_Controller_PM.c **** {   
  21:Generated_Source\PSoC5/CapSense_Controller_PM.c ****     0x00u, /* enableState; */
  22:Generated_Source\PSoC5/CapSense_Controller_PM.c ****     
  23:Generated_Source\PSoC5/CapSense_Controller_PM.c **** };
ARM GAS  C:\Users\AHMADN~1\AppData\Local\Temp\ccrljUXp.s 			page 2


  24:Generated_Source\PSoC5/CapSense_Controller_PM.c **** 
  25:Generated_Source\PSoC5/CapSense_Controller_PM.c **** 
  26:Generated_Source\PSoC5/CapSense_Controller_PM.c **** /*******************************************************************************
  27:Generated_Source\PSoC5/CapSense_Controller_PM.c **** * Function Name: CapSense_Controller_SaveConfig
  28:Generated_Source\PSoC5/CapSense_Controller_PM.c **** ********************************************************************************
  29:Generated_Source\PSoC5/CapSense_Controller_PM.c **** *
  30:Generated_Source\PSoC5/CapSense_Controller_PM.c **** * Summary:
  31:Generated_Source\PSoC5/CapSense_Controller_PM.c **** *  Saves customer configuration of CapSense none-retention registers. Resets 
  32:Generated_Source\PSoC5/CapSense_Controller_PM.c **** *  all sensors to an inactive state.
  33:Generated_Source\PSoC5/CapSense_Controller_PM.c **** *
  34:Generated_Source\PSoC5/CapSense_Controller_PM.c **** * Parameters:
  35:Generated_Source\PSoC5/CapSense_Controller_PM.c **** *  None
  36:Generated_Source\PSoC5/CapSense_Controller_PM.c **** *
  37:Generated_Source\PSoC5/CapSense_Controller_PM.c **** * Return:
  38:Generated_Source\PSoC5/CapSense_Controller_PM.c **** *  None
  39:Generated_Source\PSoC5/CapSense_Controller_PM.c **** *
  40:Generated_Source\PSoC5/CapSense_Controller_PM.c **** * Side Effects:
  41:Generated_Source\PSoC5/CapSense_Controller_PM.c **** *  Function CapSense_Controller_SaveConfig disconnects all sensors from the
  42:Generated_Source\PSoC5/CapSense_Controller_PM.c **** *  Analog MUX Bus and puts them into inactive state. Call this function
  43:Generated_Source\PSoC5/CapSense_Controller_PM.c **** *  during the active scan can cause unpredictable component behavior.
  44:Generated_Source\PSoC5/CapSense_Controller_PM.c **** *
  45:Generated_Source\PSoC5/CapSense_Controller_PM.c **** * Note:
  46:Generated_Source\PSoC5/CapSense_Controller_PM.c **** *  This function should be called after completion of all scans.
  47:Generated_Source\PSoC5/CapSense_Controller_PM.c **** *
  48:Generated_Source\PSoC5/CapSense_Controller_PM.c **** * Global Variables:
  49:Generated_Source\PSoC5/CapSense_Controller_PM.c **** *  CapSense_Controller_backup - used to save component state before enter sleep 
  50:Generated_Source\PSoC5/CapSense_Controller_PM.c **** *  mode and none-retention registers.
  51:Generated_Source\PSoC5/CapSense_Controller_PM.c **** *
  52:Generated_Source\PSoC5/CapSense_Controller_PM.c **** * Reentrant:
  53:Generated_Source\PSoC5/CapSense_Controller_PM.c **** *  Yes.
  54:Generated_Source\PSoC5/CapSense_Controller_PM.c **** *
  55:Generated_Source\PSoC5/CapSense_Controller_PM.c **** *******************************************************************************/
  56:Generated_Source\PSoC5/CapSense_Controller_PM.c **** void CapSense_Controller_SaveConfig(void) 
  57:Generated_Source\PSoC5/CapSense_Controller_PM.c **** {    
  35              		.loc 1 57 0
  36              		.cfi_startproc
  37              		@ args = 0, pretend = 0, frame = 0
  38              		@ frame_needed = 1, uses_anonymous_args = 0
  39 0000 80B5     		push	{r7, lr}
  40              		.cfi_def_cfa_offset 8
  41              		.cfi_offset 7, -8
  42              		.cfi_offset 14, -4
  43 0002 00AF     		add	r7, sp, #0
  44              		.cfi_def_cfa_register 7
  58:Generated_Source\PSoC5/CapSense_Controller_PM.c **** 
  59:Generated_Source\PSoC5/CapSense_Controller_PM.c ****     /* Set CONTROL_REG */
  60:Generated_Source\PSoC5/CapSense_Controller_PM.c ****     CapSense_Controller_backup.ctrlReg = CapSense_Controller_CONTROL_REG;
  45              		.loc 1 60 0
  46 0004 044B     		ldr	r3, .L2
  47 0006 1B78     		ldrb	r3, [r3]
  48 0008 DAB2     		uxtb	r2, r3
  49 000a 044B     		ldr	r3, .L2+4
  50 000c 5A70     		strb	r2, [r3, #1]
  61:Generated_Source\PSoC5/CapSense_Controller_PM.c **** 
  62:Generated_Source\PSoC5/CapSense_Controller_PM.c ****     /* Clear all sensors */
  63:Generated_Source\PSoC5/CapSense_Controller_PM.c ****     CapSense_Controller_ClearSensors();
  51              		.loc 1 63 0
ARM GAS  C:\Users\AHMADN~1\AppData\Local\Temp\ccrljUXp.s 			page 3


  52 000e FFF7FEFF 		bl	CapSense_Controller_ClearSensors
  64:Generated_Source\PSoC5/CapSense_Controller_PM.c ****     
  65:Generated_Source\PSoC5/CapSense_Controller_PM.c ****     /* The pins disable is customer concern: Cmod and Rb */
  66:Generated_Source\PSoC5/CapSense_Controller_PM.c **** }
  53              		.loc 1 66 0
  54 0012 00BF     		nop
  55 0014 80BD     		pop	{r7, pc}
  56              	.L3:
  57 0016 00BF     		.align	2
  58              	.L2:
  59 0018 72640040 		.word	1073767538
  60 001c 00000000 		.word	CapSense_Controller_backup
  61              		.cfi_endproc
  62              	.LFE0:
  63              		.size	CapSense_Controller_SaveConfig, .-CapSense_Controller_SaveConfig
  64              		.section	.text.CapSense_Controller_Sleep,"ax",%progbits
  65              		.align	2
  66              		.global	CapSense_Controller_Sleep
  67              		.thumb
  68              		.thumb_func
  69              		.type	CapSense_Controller_Sleep, %function
  70              	CapSense_Controller_Sleep:
  71              	.LFB1:
  67:Generated_Source\PSoC5/CapSense_Controller_PM.c **** 
  68:Generated_Source\PSoC5/CapSense_Controller_PM.c **** 
  69:Generated_Source\PSoC5/CapSense_Controller_PM.c **** /*******************************************************************************
  70:Generated_Source\PSoC5/CapSense_Controller_PM.c **** * Function Name: CapSense_Controller_Sleep
  71:Generated_Source\PSoC5/CapSense_Controller_PM.c **** ********************************************************************************
  72:Generated_Source\PSoC5/CapSense_Controller_PM.c **** *
  73:Generated_Source\PSoC5/CapSense_Controller_PM.c **** * Summary:
  74:Generated_Source\PSoC5/CapSense_Controller_PM.c **** *  Disables Active mode power template bits for number of component used within 
  75:Generated_Source\PSoC5/CapSense_Controller_PM.c **** *  CapSense. Calls CapSense_Controller_SaveConfig() function to save customer 
  76:Generated_Source\PSoC5/CapSense_Controller_PM.c **** *  configuration of CapSense none-retention registers and resets all sensors 
  77:Generated_Source\PSoC5/CapSense_Controller_PM.c **** *  to an inactive state.
  78:Generated_Source\PSoC5/CapSense_Controller_PM.c **** *
  79:Generated_Source\PSoC5/CapSense_Controller_PM.c **** * Parameters:
  80:Generated_Source\PSoC5/CapSense_Controller_PM.c **** *  None
  81:Generated_Source\PSoC5/CapSense_Controller_PM.c **** *
  82:Generated_Source\PSoC5/CapSense_Controller_PM.c **** * Return:
  83:Generated_Source\PSoC5/CapSense_Controller_PM.c **** *  None
  84:Generated_Source\PSoC5/CapSense_Controller_PM.c **** *
  85:Generated_Source\PSoC5/CapSense_Controller_PM.c **** * Side Effects:
  86:Generated_Source\PSoC5/CapSense_Controller_PM.c **** *  Function CapSense_Controller_Sleep disconnects all sensors from the
  87:Generated_Source\PSoC5/CapSense_Controller_PM.c **** *  Analog MUX Bus and puts them into inactive state. Call this function
  88:Generated_Source\PSoC5/CapSense_Controller_PM.c **** *  during the active scan can cause unpredictable component behavior.
  89:Generated_Source\PSoC5/CapSense_Controller_PM.c **** *
  90:Generated_Source\PSoC5/CapSense_Controller_PM.c **** * Note:
  91:Generated_Source\PSoC5/CapSense_Controller_PM.c **** *  This function should be called after completion of all scans.
  92:Generated_Source\PSoC5/CapSense_Controller_PM.c **** *
  93:Generated_Source\PSoC5/CapSense_Controller_PM.c **** * Global Variables:
  94:Generated_Source\PSoC5/CapSense_Controller_PM.c **** *  CapSense_Controller_backup - used to save component state before enter sleep 
  95:Generated_Source\PSoC5/CapSense_Controller_PM.c **** *  mode and none-retention registers.
  96:Generated_Source\PSoC5/CapSense_Controller_PM.c **** *
  97:Generated_Source\PSoC5/CapSense_Controller_PM.c **** * Reentrant:
  98:Generated_Source\PSoC5/CapSense_Controller_PM.c **** *  No
  99:Generated_Source\PSoC5/CapSense_Controller_PM.c **** *
 100:Generated_Source\PSoC5/CapSense_Controller_PM.c **** *******************************************************************************/
ARM GAS  C:\Users\AHMADN~1\AppData\Local\Temp\ccrljUXp.s 			page 4


 101:Generated_Source\PSoC5/CapSense_Controller_PM.c **** void CapSense_Controller_Sleep(void) 
 102:Generated_Source\PSoC5/CapSense_Controller_PM.c **** {
  72              		.loc 1 102 0
  73              		.cfi_startproc
  74              		@ args = 0, pretend = 0, frame = 0
  75              		@ frame_needed = 1, uses_anonymous_args = 0
  76 0000 80B5     		push	{r7, lr}
  77              		.cfi_def_cfa_offset 8
  78              		.cfi_offset 7, -8
  79              		.cfi_offset 14, -4
  80 0002 00AF     		add	r7, sp, #0
  81              		.cfi_def_cfa_register 7
 103:Generated_Source\PSoC5/CapSense_Controller_PM.c ****     /* Check and save enable state */
 104:Generated_Source\PSoC5/CapSense_Controller_PM.c ****     if(CapSense_Controller_IS_CAPSENSE_ENABLE(CapSense_Controller_CONTROL_REG))
  82              		.loc 1 104 0
  83 0004 094B     		ldr	r3, .L7
  84 0006 1B78     		ldrb	r3, [r3]
  85 0008 DBB2     		uxtb	r3, r3
  86 000a 5BB2     		sxtb	r3, r3
  87 000c 002B     		cmp	r3, #0
  88 000e 05DA     		bge	.L5
 105:Generated_Source\PSoC5/CapSense_Controller_PM.c ****     {
 106:Generated_Source\PSoC5/CapSense_Controller_PM.c ****         CapSense_Controller_backup.enableState = 1u;
  89              		.loc 1 106 0
  90 0010 074B     		ldr	r3, .L7+4
  91 0012 0122     		movs	r2, #1
  92 0014 1A70     		strb	r2, [r3]
 107:Generated_Source\PSoC5/CapSense_Controller_PM.c ****         CapSense_Controller_Stop();
  93              		.loc 1 107 0
  94 0016 FFF7FEFF 		bl	CapSense_Controller_Stop
  95 001a 02E0     		b	.L6
  96              	.L5:
 108:Generated_Source\PSoC5/CapSense_Controller_PM.c ****     }
 109:Generated_Source\PSoC5/CapSense_Controller_PM.c ****     else
 110:Generated_Source\PSoC5/CapSense_Controller_PM.c ****     {
 111:Generated_Source\PSoC5/CapSense_Controller_PM.c ****         CapSense_Controller_backup.enableState = 0u;
  97              		.loc 1 111 0
  98 001c 044B     		ldr	r3, .L7+4
  99 001e 0022     		movs	r2, #0
 100 0020 1A70     		strb	r2, [r3]
 101              	.L6:
 112:Generated_Source\PSoC5/CapSense_Controller_PM.c ****     }
 113:Generated_Source\PSoC5/CapSense_Controller_PM.c ****     
 114:Generated_Source\PSoC5/CapSense_Controller_PM.c ****     CapSense_Controller_SaveConfig();
 102              		.loc 1 114 0
 103 0022 FFF7FEFF 		bl	CapSense_Controller_SaveConfig
 115:Generated_Source\PSoC5/CapSense_Controller_PM.c **** }
 104              		.loc 1 115 0
 105 0026 00BF     		nop
 106 0028 80BD     		pop	{r7, pc}
 107              	.L8:
 108 002a 00BF     		.align	2
 109              	.L7:
 110 002c 72640040 		.word	1073767538
 111 0030 00000000 		.word	CapSense_Controller_backup
 112              		.cfi_endproc
 113              	.LFE1:
ARM GAS  C:\Users\AHMADN~1\AppData\Local\Temp\ccrljUXp.s 			page 5


 114              		.size	CapSense_Controller_Sleep, .-CapSense_Controller_Sleep
 115              		.section	.text.CapSense_Controller_RestoreConfig,"ax",%progbits
 116              		.align	2
 117              		.global	CapSense_Controller_RestoreConfig
 118              		.thumb
 119              		.thumb_func
 120              		.type	CapSense_Controller_RestoreConfig, %function
 121              	CapSense_Controller_RestoreConfig:
 122              	.LFB2:
 116:Generated_Source\PSoC5/CapSense_Controller_PM.c **** 
 117:Generated_Source\PSoC5/CapSense_Controller_PM.c **** 
 118:Generated_Source\PSoC5/CapSense_Controller_PM.c **** /*******************************************************************************
 119:Generated_Source\PSoC5/CapSense_Controller_PM.c **** * Function Name: CapSense_Controller_RestoreConfig
 120:Generated_Source\PSoC5/CapSense_Controller_PM.c **** ********************************************************************************
 121:Generated_Source\PSoC5/CapSense_Controller_PM.c **** *
 122:Generated_Source\PSoC5/CapSense_Controller_PM.c **** * Summary:
 123:Generated_Source\PSoC5/CapSense_Controller_PM.c **** *  Restores CapSense configuration and non-retention register values.
 124:Generated_Source\PSoC5/CapSense_Controller_PM.c **** *
 125:Generated_Source\PSoC5/CapSense_Controller_PM.c **** * Parameters:
 126:Generated_Source\PSoC5/CapSense_Controller_PM.c **** *  None
 127:Generated_Source\PSoC5/CapSense_Controller_PM.c **** *
 128:Generated_Source\PSoC5/CapSense_Controller_PM.c **** * Return:
 129:Generated_Source\PSoC5/CapSense_Controller_PM.c **** *  None
 130:Generated_Source\PSoC5/CapSense_Controller_PM.c **** *
 131:Generated_Source\PSoC5/CapSense_Controller_PM.c **** * Side Effects:
 132:Generated_Source\PSoC5/CapSense_Controller_PM.c **** *  Must be called only after CapSense_Controller_SaveConfig() routine. Otherwise 
 133:Generated_Source\PSoC5/CapSense_Controller_PM.c **** *  the component configuration will be overwritten with its initial setting.
 134:Generated_Source\PSoC5/CapSense_Controller_PM.c **** *  This finction modifies the CONTROL_REG register. 
 135:Generated_Source\PSoC5/CapSense_Controller_PM.c **** *
 136:Generated_Source\PSoC5/CapSense_Controller_PM.c **** * Note:
 137:Generated_Source\PSoC5/CapSense_Controller_PM.c **** *  This function should be called after completion of all scans.
 138:Generated_Source\PSoC5/CapSense_Controller_PM.c **** *
 139:Generated_Source\PSoC5/CapSense_Controller_PM.c **** * Global Variables:
 140:Generated_Source\PSoC5/CapSense_Controller_PM.c **** *  CapSense_Controller_backup - used to save component state before enter sleep 
 141:Generated_Source\PSoC5/CapSense_Controller_PM.c **** *  mode and none-retention registers.
 142:Generated_Source\PSoC5/CapSense_Controller_PM.c **** *
 143:Generated_Source\PSoC5/CapSense_Controller_PM.c **** *******************************************************************************/
 144:Generated_Source\PSoC5/CapSense_Controller_PM.c **** void CapSense_Controller_RestoreConfig(void) 
 145:Generated_Source\PSoC5/CapSense_Controller_PM.c **** {       
 123              		.loc 1 145 0
 124              		.cfi_startproc
 125              		@ args = 0, pretend = 0, frame = 0
 126              		@ frame_needed = 1, uses_anonymous_args = 0
 127              		@ link register save eliminated.
 128 0000 80B4     		push	{r7}
 129              		.cfi_def_cfa_offset 4
 130              		.cfi_offset 7, -4
 131 0002 00AF     		add	r7, sp, #0
 132              		.cfi_def_cfa_register 7
 146:Generated_Source\PSoC5/CapSense_Controller_PM.c ****     /* Set PRS */
 147:Generated_Source\PSoC5/CapSense_Controller_PM.c ****     #if (CapSense_Controller_PRS_OPTIONS == CapSense_Controller_PRS_8BITS)        
 148:Generated_Source\PSoC5/CapSense_Controller_PM.c ****         /* Write FIFO with seed */
 149:Generated_Source\PSoC5/CapSense_Controller_PM.c ****         CapSense_Controller_SEED_COPY_REG = CapSense_Controller_MEASURE_FULL_RANGE_LOW;            
 150:Generated_Source\PSoC5/CapSense_Controller_PM.c ****     
 151:Generated_Source\PSoC5/CapSense_Controller_PM.c ****     #elif (CapSense_Controller_PRS_OPTIONS == CapSense_Controller_PRS_16BITS)
 152:Generated_Source\PSoC5/CapSense_Controller_PM.c ****         /* Write FIFO with seed */
 153:Generated_Source\PSoC5/CapSense_Controller_PM.c ****         CY_SET_REG16(CapSense_Controller_SEED_COPY_PTR, CapSense_Controller_MEASURE_FULL_RANGE);   
ARM GAS  C:\Users\AHMADN~1\AppData\Local\Temp\ccrljUXp.s 			page 6


 133              		.loc 1 153 0
 134 0004 0E4B     		ldr	r3, .L10
 135 0006 4FF6FF72 		movw	r2, #65535
 136 000a 1A80     		strh	r2, [r3]	@ movhi
 154:Generated_Source\PSoC5/CapSense_Controller_PM.c ****                 
 155:Generated_Source\PSoC5/CapSense_Controller_PM.c ****     #elif (CapSense_Controller_PRS_OPTIONS == CapSense_Controller_PRS_16BITS_4X)
 156:Generated_Source\PSoC5/CapSense_Controller_PM.c ****         
 157:Generated_Source\PSoC5/CapSense_Controller_PM.c ****         /* Write FIFO with seed */
 158:Generated_Source\PSoC5/CapSense_Controller_PM.c ****         CapSense_Controller_SEED_COPY_A__F1_REG = CapSense_Controller_MEASURE_FULL_RANGE_LOW;      
 159:Generated_Source\PSoC5/CapSense_Controller_PM.c ****         CapSense_Controller_SEED_COPY_A__F0_REG =CapSense_Controller_MEASURE_FULL_RANGE_LOW;       
 160:Generated_Source\PSoC5/CapSense_Controller_PM.c ****         
 161:Generated_Source\PSoC5/CapSense_Controller_PM.c ****     #else
 162:Generated_Source\PSoC5/CapSense_Controller_PM.c ****         /* Do nothing = config without PRS */
 163:Generated_Source\PSoC5/CapSense_Controller_PM.c ****     #endif  /* (CapSense_Controller_PRS_OPTIONS == CapSense_Controller_PRS_8BITS) */
 164:Generated_Source\PSoC5/CapSense_Controller_PM.c ****     
 165:Generated_Source\PSoC5/CapSense_Controller_PM.c ****     /* Set the Measure */
 166:Generated_Source\PSoC5/CapSense_Controller_PM.c ****     #if (CapSense_Controller_IMPLEMENTATION_CH0 == CapSense_Controller_MEASURE_IMPLEMENTATION_FF)
 167:Generated_Source\PSoC5/CapSense_Controller_PM.c ****         /* Window PWM  - FF Timer register are retention */
 168:Generated_Source\PSoC5/CapSense_Controller_PM.c ****         /* Raw Counter - FF Timer register are retention */
 169:Generated_Source\PSoC5/CapSense_Controller_PM.c ****     #else
 170:Generated_Source\PSoC5/CapSense_Controller_PM.c ****         
 171:Generated_Source\PSoC5/CapSense_Controller_PM.c ****         /* Window PWM */
 172:Generated_Source\PSoC5/CapSense_Controller_PM.c ****         CapSense_Controller_PWM_CH0_PERIOD_LO_REG    = CapSense_Controller_MEASURE_FULL_RANGE_LOW; 
 137              		.loc 1 172 0
 138 000c 0D4B     		ldr	r3, .L10+4
 139 000e FF22     		movs	r2, #255
 140 0010 1A70     		strb	r2, [r3]
 173:Generated_Source\PSoC5/CapSense_Controller_PM.c ****         
 174:Generated_Source\PSoC5/CapSense_Controller_PM.c ****         /* Raw Counter */
 175:Generated_Source\PSoC5/CapSense_Controller_PM.c ****         CapSense_Controller_RAW_CH0_PERIOD_HI_REG    = CapSense_Controller_MEASURE_FULL_RANGE_LOW; 
 141              		.loc 1 175 0
 142 0012 0D4B     		ldr	r3, .L10+8
 143 0014 FF22     		movs	r2, #255
 144 0016 1A70     		strb	r2, [r3]
 176:Generated_Source\PSoC5/CapSense_Controller_PM.c ****         CapSense_Controller_RAW_CH0_PERIOD_LO_REG    = CapSense_Controller_MEASURE_FULL_RANGE_LOW; 
 145              		.loc 1 176 0
 146 0018 0C4B     		ldr	r3, .L10+12
 147 001a FF22     		movs	r2, #255
 148 001c 1A70     		strb	r2, [r3]
 177:Generated_Source\PSoC5/CapSense_Controller_PM.c ****     
 178:Generated_Source\PSoC5/CapSense_Controller_PM.c ****     #endif  /* (CapSense_Controller_IMPLEMENTATION_CH0 == CapSense_Controller_MEASURE_IMPLEMENTATIO
 179:Generated_Source\PSoC5/CapSense_Controller_PM.c ****     
 180:Generated_Source\PSoC5/CapSense_Controller_PM.c ****     #if (CapSense_Controller_DESIGN_TYPE == CapSense_Controller_TWO_CHANNELS_DESIGN)
 181:Generated_Source\PSoC5/CapSense_Controller_PM.c ****         #if (CapSense_Controller_IMPLEMENTATION_CH1 == CapSense_Controller_MEASURE_IMPLEMENTATION_F
 182:Generated_Source\PSoC5/CapSense_Controller_PM.c ****             /* Window PWM  - FF Timer register are retention */
 183:Generated_Source\PSoC5/CapSense_Controller_PM.c ****             /* Raw Counter - FF Timer register are retention */
 184:Generated_Source\PSoC5/CapSense_Controller_PM.c ****         #else
 185:Generated_Source\PSoC5/CapSense_Controller_PM.c ****             
 186:Generated_Source\PSoC5/CapSense_Controller_PM.c ****             /* Window PWM */
 187:Generated_Source\PSoC5/CapSense_Controller_PM.c ****             CapSense_Controller_PWM_CH1_PERIOD_LO_REG    = CapSense_Controller_MEASURE_FULL_RANGE_L
 188:Generated_Source\PSoC5/CapSense_Controller_PM.c ****             
 189:Generated_Source\PSoC5/CapSense_Controller_PM.c ****             /* Raw Counter */
 190:Generated_Source\PSoC5/CapSense_Controller_PM.c ****             CapSense_Controller_RAW_CH1_PERIOD_HI_REG    = CapSense_Controller_MEASURE_FULL_RANGE_L
 191:Generated_Source\PSoC5/CapSense_Controller_PM.c ****             CapSense_Controller_RAW_CH1_PERIOD_LO_REG    = CapSense_Controller_MEASURE_FULL_RANGE_L
 192:Generated_Source\PSoC5/CapSense_Controller_PM.c ****             
 193:Generated_Source\PSoC5/CapSense_Controller_PM.c ****         #endif  /* (CapSense_Controller_IMPLEMENTATION_CH1 == CapSense_Controller_MEASURE_IMPLEMENT
 194:Generated_Source\PSoC5/CapSense_Controller_PM.c ****     
ARM GAS  C:\Users\AHMADN~1\AppData\Local\Temp\ccrljUXp.s 			page 7


 195:Generated_Source\PSoC5/CapSense_Controller_PM.c ****     #endif  /* (CapSense_Controller_DESIGN_TYPE == TWO_CHANNELS_DESIGN)*/
 196:Generated_Source\PSoC5/CapSense_Controller_PM.c **** 
 197:Generated_Source\PSoC5/CapSense_Controller_PM.c ****     /* Set CONTROL_REG */
 198:Generated_Source\PSoC5/CapSense_Controller_PM.c ****     CapSense_Controller_CONTROL_REG = CapSense_Controller_backup.ctrlReg;
 149              		.loc 1 198 0
 150 001e 0C4B     		ldr	r3, .L10+16
 151 0020 0C4A     		ldr	r2, .L10+20
 152 0022 5278     		ldrb	r2, [r2, #1]	@ zero_extendqisi2
 153 0024 1A70     		strb	r2, [r3]
 199:Generated_Source\PSoC5/CapSense_Controller_PM.c **** 
 200:Generated_Source\PSoC5/CapSense_Controller_PM.c ****     /* Enable window generation */
 201:Generated_Source\PSoC5/CapSense_Controller_PM.c ****     #if (CapSense_Controller_DESIGN_TYPE == CapSense_Controller_ONE_CHANNEL_DESIGN)
 202:Generated_Source\PSoC5/CapSense_Controller_PM.c ****         CapSense_Controller_CONTROL_REG |= CapSense_Controller_CTRL_WINDOW_EN__CH0;
 154              		.loc 1 202 0
 155 0026 0A4A     		ldr	r2, .L10+16
 156 0028 094B     		ldr	r3, .L10+16
 157 002a 1B78     		ldrb	r3, [r3]
 158 002c DBB2     		uxtb	r3, r3
 159 002e 43F00403 		orr	r3, r3, #4
 160 0032 DBB2     		uxtb	r3, r3
 161 0034 1370     		strb	r3, [r2]
 203:Generated_Source\PSoC5/CapSense_Controller_PM.c ****     #elif (CapSense_Controller_DESIGN_TYPE == CapSense_Controller_TWO_CHANNELS_DESIGN) 
 204:Generated_Source\PSoC5/CapSense_Controller_PM.c ****         CapSense_Controller_CONTROL_REG |= (CapSense_Controller_CTRL_WINDOW_EN__CH0 | CapSense_Cont
 205:Generated_Source\PSoC5/CapSense_Controller_PM.c ****     #endif  /* CapSense_Controller_DESIGN_TYPE */
 206:Generated_Source\PSoC5/CapSense_Controller_PM.c ****  
 207:Generated_Source\PSoC5/CapSense_Controller_PM.c ****     /* The pins enable are customer concern: Cmod and Rb */
 208:Generated_Source\PSoC5/CapSense_Controller_PM.c ****  }
 162              		.loc 1 208 0
 163 0036 00BF     		nop
 164 0038 BD46     		mov	sp, r7
 165              		.cfi_def_cfa_register 13
 166              		@ sp needed
 167 003a 80BC     		pop	{r7}
 168              		.cfi_restore 7
 169              		.cfi_def_cfa_offset 0
 170 003c 7047     		bx	lr
 171              	.L11:
 172 003e 00BF     		.align	2
 173              	.L10:
 174 0040 42640040 		.word	1073767490
 175 0044 47650040 		.word	1073767751
 176 0048 54640040 		.word	1073767508
 177 004c 44640040 		.word	1073767492
 178 0050 72640040 		.word	1073767538
 179 0054 00000000 		.word	CapSense_Controller_backup
 180              		.cfi_endproc
 181              	.LFE2:
 182              		.size	CapSense_Controller_RestoreConfig, .-CapSense_Controller_RestoreConfig
 183              		.section	.text.CapSense_Controller_Wakeup,"ax",%progbits
 184              		.align	2
 185              		.global	CapSense_Controller_Wakeup
 186              		.thumb
 187              		.thumb_func
 188              		.type	CapSense_Controller_Wakeup, %function
 189              	CapSense_Controller_Wakeup:
 190              	.LFB3:
 209:Generated_Source\PSoC5/CapSense_Controller_PM.c ****  
ARM GAS  C:\Users\AHMADN~1\AppData\Local\Temp\ccrljUXp.s 			page 8


 210:Generated_Source\PSoC5/CapSense_Controller_PM.c **** 
 211:Generated_Source\PSoC5/CapSense_Controller_PM.c **** /*******************************************************************************
 212:Generated_Source\PSoC5/CapSense_Controller_PM.c **** * Function Name: CapSense_Controller_Wakeup
 213:Generated_Source\PSoC5/CapSense_Controller_PM.c **** ********************************************************************************
 214:Generated_Source\PSoC5/CapSense_Controller_PM.c **** *
 215:Generated_Source\PSoC5/CapSense_Controller_PM.c **** * Summary:
 216:Generated_Source\PSoC5/CapSense_Controller_PM.c **** *  Restores CapSense configuration and non-retention register values. 
 217:Generated_Source\PSoC5/CapSense_Controller_PM.c **** *  Restores enabled state of component by setting Active mode power template 
 218:Generated_Source\PSoC5/CapSense_Controller_PM.c **** *  bits for number of component used within CapSense.
 219:Generated_Source\PSoC5/CapSense_Controller_PM.c **** *
 220:Generated_Source\PSoC5/CapSense_Controller_PM.c **** * Parameters:
 221:Generated_Source\PSoC5/CapSense_Controller_PM.c **** *  None
 222:Generated_Source\PSoC5/CapSense_Controller_PM.c **** *
 223:Generated_Source\PSoC5/CapSense_Controller_PM.c **** * Return:
 224:Generated_Source\PSoC5/CapSense_Controller_PM.c **** *  None
 225:Generated_Source\PSoC5/CapSense_Controller_PM.c **** *
 226:Generated_Source\PSoC5/CapSense_Controller_PM.c **** * Side Effects:
 227:Generated_Source\PSoC5/CapSense_Controller_PM.c **** *  Must be called only after CapSense_Controller_SaveConfig() routine. Otherwise 
 228:Generated_Source\PSoC5/CapSense_Controller_PM.c **** *  the component configuration will be overwritten with its initial setting.
 229:Generated_Source\PSoC5/CapSense_Controller_PM.c **** *  This finction modifies the CONTROL_REG register. 
 230:Generated_Source\PSoC5/CapSense_Controller_PM.c **** *
 231:Generated_Source\PSoC5/CapSense_Controller_PM.c **** * Note:
 232:Generated_Source\PSoC5/CapSense_Controller_PM.c **** *  This function should be called after completion of all scans.
 233:Generated_Source\PSoC5/CapSense_Controller_PM.c **** *
 234:Generated_Source\PSoC5/CapSense_Controller_PM.c **** * Global Variables:
 235:Generated_Source\PSoC5/CapSense_Controller_PM.c **** *  CapSense_Controller_backup - used to save component state before enter sleep 
 236:Generated_Source\PSoC5/CapSense_Controller_PM.c **** *  mode and none-retention registers.
 237:Generated_Source\PSoC5/CapSense_Controller_PM.c **** *
 238:Generated_Source\PSoC5/CapSense_Controller_PM.c **** *******************************************************************************/
 239:Generated_Source\PSoC5/CapSense_Controller_PM.c **** void CapSense_Controller_Wakeup(void) 
 240:Generated_Source\PSoC5/CapSense_Controller_PM.c **** {
 191              		.loc 1 240 0
 192              		.cfi_startproc
 193              		@ args = 0, pretend = 0, frame = 0
 194              		@ frame_needed = 1, uses_anonymous_args = 0
 195 0000 80B5     		push	{r7, lr}
 196              		.cfi_def_cfa_offset 8
 197              		.cfi_offset 7, -8
 198              		.cfi_offset 14, -4
 199 0002 00AF     		add	r7, sp, #0
 200              		.cfi_def_cfa_register 7
 241:Generated_Source\PSoC5/CapSense_Controller_PM.c ****     CapSense_Controller_RestoreConfig();
 201              		.loc 1 241 0
 202 0004 FFF7FEFF 		bl	CapSense_Controller_RestoreConfig
 242:Generated_Source\PSoC5/CapSense_Controller_PM.c ****     
 243:Generated_Source\PSoC5/CapSense_Controller_PM.c ****     /* Restore CapSense Enable state */
 244:Generated_Source\PSoC5/CapSense_Controller_PM.c ****     if (CapSense_Controller_backup.enableState != 0u)
 203              		.loc 1 244 0
 204 0008 034B     		ldr	r3, .L15
 205 000a 1B78     		ldrb	r3, [r3]	@ zero_extendqisi2
 206 000c 002B     		cmp	r3, #0
 207 000e 01D0     		beq	.L14
 245:Generated_Source\PSoC5/CapSense_Controller_PM.c ****     {
 246:Generated_Source\PSoC5/CapSense_Controller_PM.c ****         CapSense_Controller_Enable();
 208              		.loc 1 246 0
 209 0010 FFF7FEFF 		bl	CapSense_Controller_Enable
 210              	.L14:
ARM GAS  C:\Users\AHMADN~1\AppData\Local\Temp\ccrljUXp.s 			page 9


 247:Generated_Source\PSoC5/CapSense_Controller_PM.c ****     }
 248:Generated_Source\PSoC5/CapSense_Controller_PM.c **** }
 211              		.loc 1 248 0
 212 0014 00BF     		nop
 213 0016 80BD     		pop	{r7, pc}
 214              	.L16:
 215              		.align	2
 216              	.L15:
 217 0018 00000000 		.word	CapSense_Controller_backup
 218              		.cfi_endproc
 219              	.LFE3:
 220              		.size	CapSense_Controller_Wakeup, .-CapSense_Controller_Wakeup
 221              		.text
 222              	.Letext0:
 223              		.file 2 "Generated_Source\\PSoC5\\cytypes.h"
 224              		.file 3 "Generated_Source\\PSoC5\\CapSense_Controller.h"