ARM GAS  C:\Users\AHMADN~1\AppData\Local\Temp\cchc3eW8.s 			page 1


   1              		.syntax unified
   2              		.cpu cortex-m3
   3              		.fpu softvfp
   4              		.eabi_attribute 20, 1
   5              		.eabi_attribute 21, 1
   6              		.eabi_attribute 23, 3
   7              		.eabi_attribute 24, 1
   8              		.eabi_attribute 25, 1
   9              		.eabi_attribute 26, 1
  10              		.eabi_attribute 30, 6
  11              		.eabi_attribute 34, 1
  12              		.eabi_attribute 18, 4
  13              		.thumb
  14              		.syntax unified
  15              		.file	"CapSense_Controller_AMuxCH0.c"
  16              		.text
  17              	.Ltext0:
  18              		.cfi_sections	.debug_frame
  19              		.global	CapSense_Controller_AMuxCH0_initVar
  20              		.bss
  21              		.type	CapSense_Controller_AMuxCH0_initVar, %object
  22              		.size	CapSense_Controller_AMuxCH0_initVar, 1
  23              	CapSense_Controller_AMuxCH0_initVar:
  24 0000 00       		.space	1
  25              		.global	CapSense_Controller_AMuxCH0_lastChannel
  26              		.data
  27              		.type	CapSense_Controller_AMuxCH0_lastChannel, %object
  28              		.size	CapSense_Controller_AMuxCH0_lastChannel, 1
  29              	CapSense_Controller_AMuxCH0_lastChannel:
  30 0000 FF       		.byte	-1
  31              		.section	.text.CapSense_Controller_AMuxCH0_Start,"ax",%progbits
  32              		.align	2
  33              		.global	CapSense_Controller_AMuxCH0_Start
  34              		.thumb
  35              		.thumb_func
  36              		.type	CapSense_Controller_AMuxCH0_Start, %function
  37              	CapSense_Controller_AMuxCH0_Start:
  38              	.LFB0:
  39              		.file 1 "Generated_Source\\PSoC5\\CapSense_Controller_AMuxCH0.c"
   1:Generated_Source\PSoC5/CapSense_Controller_AMuxCH0.c **** /*******************************************************************************
   2:Generated_Source\PSoC5/CapSense_Controller_AMuxCH0.c **** * File Name: CapSense_Controller_AMuxCH0.c
   3:Generated_Source\PSoC5/CapSense_Controller_AMuxCH0.c **** * Version 3.50
   4:Generated_Source\PSoC5/CapSense_Controller_AMuxCH0.c **** *
   5:Generated_Source\PSoC5/CapSense_Controller_AMuxCH0.c **** *  Description:
   6:Generated_Source\PSoC5/CapSense_Controller_AMuxCH0.c **** *    This file contains all functions required for the analog multiplexer
   7:Generated_Source\PSoC5/CapSense_Controller_AMuxCH0.c **** *    CapSense_CSD_AMux User Module.
   8:Generated_Source\PSoC5/CapSense_Controller_AMuxCH0.c **** *
   9:Generated_Source\PSoC5/CapSense_Controller_AMuxCH0.c **** *   Note:
  10:Generated_Source\PSoC5/CapSense_Controller_AMuxCH0.c **** *
  11:Generated_Source\PSoC5/CapSense_Controller_AMuxCH0.c **** *******************************************************************************
  12:Generated_Source\PSoC5/CapSense_Controller_AMuxCH0.c **** * Copyright 2008-2012, Cypress Semiconductor Corporation.  All rights reserved.
  13:Generated_Source\PSoC5/CapSense_Controller_AMuxCH0.c **** * You may use this file only in accordance with the license, terms, conditions, 
  14:Generated_Source\PSoC5/CapSense_Controller_AMuxCH0.c **** * disclaimers, and limitations in the end user license agreement accompanying 
  15:Generated_Source\PSoC5/CapSense_Controller_AMuxCH0.c **** * the software package with which this file was provided.
  16:Generated_Source\PSoC5/CapSense_Controller_AMuxCH0.c **** ********************************************************************************/
  17:Generated_Source\PSoC5/CapSense_Controller_AMuxCH0.c **** 
  18:Generated_Source\PSoC5/CapSense_Controller_AMuxCH0.c **** #include "CapSense_Controller_AMuxCH0.h"
ARM GAS  C:\Users\AHMADN~1\AppData\Local\Temp\cchc3eW8.s 			page 2


  19:Generated_Source\PSoC5/CapSense_Controller_AMuxCH0.c **** 
  20:Generated_Source\PSoC5/CapSense_Controller_AMuxCH0.c **** uint8 CapSense_Controller_AMuxCH0_initVar = 0u;
  21:Generated_Source\PSoC5/CapSense_Controller_AMuxCH0.c **** uint8 CapSense_Controller_AMuxCH0_lastChannel = CapSense_Controller_AMuxCH0_NULL_CHANNEL;
  22:Generated_Source\PSoC5/CapSense_Controller_AMuxCH0.c **** 
  23:Generated_Source\PSoC5/CapSense_Controller_AMuxCH0.c **** 
  24:Generated_Source\PSoC5/CapSense_Controller_AMuxCH0.c **** /*******************************************************************************
  25:Generated_Source\PSoC5/CapSense_Controller_AMuxCH0.c **** * Function Name: CapSense_Controller_AMuxCH0_Start
  26:Generated_Source\PSoC5/CapSense_Controller_AMuxCH0.c **** ********************************************************************************
  27:Generated_Source\PSoC5/CapSense_Controller_AMuxCH0.c **** * Summary:
  28:Generated_Source\PSoC5/CapSense_Controller_AMuxCH0.c **** *  Disconnect all channels.
  29:Generated_Source\PSoC5/CapSense_Controller_AMuxCH0.c **** *
  30:Generated_Source\PSoC5/CapSense_Controller_AMuxCH0.c **** * Parameters:
  31:Generated_Source\PSoC5/CapSense_Controller_AMuxCH0.c **** *  void
  32:Generated_Source\PSoC5/CapSense_Controller_AMuxCH0.c **** *
  33:Generated_Source\PSoC5/CapSense_Controller_AMuxCH0.c **** * Return:
  34:Generated_Source\PSoC5/CapSense_Controller_AMuxCH0.c **** *  void
  35:Generated_Source\PSoC5/CapSense_Controller_AMuxCH0.c **** *
  36:Generated_Source\PSoC5/CapSense_Controller_AMuxCH0.c **** *******************************************************************************/
  37:Generated_Source\PSoC5/CapSense_Controller_AMuxCH0.c **** void CapSense_Controller_AMuxCH0_Start(void)
  38:Generated_Source\PSoC5/CapSense_Controller_AMuxCH0.c **** {
  40              		.loc 1 38 0
  41              		.cfi_startproc
  42              		@ args = 0, pretend = 0, frame = 0
  43              		@ frame_needed = 1, uses_anonymous_args = 0
  44 0000 80B5     		push	{r7, lr}
  45              		.cfi_def_cfa_offset 8
  46              		.cfi_offset 7, -8
  47              		.cfi_offset 14, -4
  48 0002 00AF     		add	r7, sp, #0
  49              		.cfi_def_cfa_register 7
  39:Generated_Source\PSoC5/CapSense_Controller_AMuxCH0.c ****     CapSense_Controller_AMuxCH0_DisconnectAll();
  50              		.loc 1 39 0
  51 0004 FFF7FEFF 		bl	CapSense_Controller_AMuxCH0_DisconnectAll
  40:Generated_Source\PSoC5/CapSense_Controller_AMuxCH0.c ****     CapSense_Controller_AMuxCH0_initVar = 1u;
  52              		.loc 1 40 0
  53 0008 024B     		ldr	r3, .L2
  54 000a 0122     		movs	r2, #1
  55 000c 1A70     		strb	r2, [r3]
  41:Generated_Source\PSoC5/CapSense_Controller_AMuxCH0.c **** }
  56              		.loc 1 41 0
  57 000e 00BF     		nop
  58 0010 80BD     		pop	{r7, pc}
  59              	.L3:
  60 0012 00BF     		.align	2
  61              	.L2:
  62 0014 00000000 		.word	CapSense_Controller_AMuxCH0_initVar
  63              		.cfi_endproc
  64              	.LFE0:
  65              		.size	CapSense_Controller_AMuxCH0_Start, .-CapSense_Controller_AMuxCH0_Start
  66              		.section	.text.CapSense_Controller_AMuxCH0_Init,"ax",%progbits
  67              		.align	2
  68              		.global	CapSense_Controller_AMuxCH0_Init
  69              		.thumb
  70              		.thumb_func
  71              		.type	CapSense_Controller_AMuxCH0_Init, %function
  72              	CapSense_Controller_AMuxCH0_Init:
  73              	.LFB1:
ARM GAS  C:\Users\AHMADN~1\AppData\Local\Temp\cchc3eW8.s 			page 3


  42:Generated_Source\PSoC5/CapSense_Controller_AMuxCH0.c **** 
  43:Generated_Source\PSoC5/CapSense_Controller_AMuxCH0.c **** 
  44:Generated_Source\PSoC5/CapSense_Controller_AMuxCH0.c **** /*******************************************************************************
  45:Generated_Source\PSoC5/CapSense_Controller_AMuxCH0.c **** * Function Name: CapSense_Controller_AMuxCH0_Init
  46:Generated_Source\PSoC5/CapSense_Controller_AMuxCH0.c **** ********************************************************************************
  47:Generated_Source\PSoC5/CapSense_Controller_AMuxCH0.c **** * Summary:
  48:Generated_Source\PSoC5/CapSense_Controller_AMuxCH0.c **** *  Disconnect all channels.
  49:Generated_Source\PSoC5/CapSense_Controller_AMuxCH0.c **** *
  50:Generated_Source\PSoC5/CapSense_Controller_AMuxCH0.c **** * Parameters:
  51:Generated_Source\PSoC5/CapSense_Controller_AMuxCH0.c **** *  void
  52:Generated_Source\PSoC5/CapSense_Controller_AMuxCH0.c **** *
  53:Generated_Source\PSoC5/CapSense_Controller_AMuxCH0.c **** * Return:
  54:Generated_Source\PSoC5/CapSense_Controller_AMuxCH0.c **** *  void
  55:Generated_Source\PSoC5/CapSense_Controller_AMuxCH0.c **** *
  56:Generated_Source\PSoC5/CapSense_Controller_AMuxCH0.c **** *******************************************************************************/
  57:Generated_Source\PSoC5/CapSense_Controller_AMuxCH0.c **** void CapSense_Controller_AMuxCH0_Init(void)
  58:Generated_Source\PSoC5/CapSense_Controller_AMuxCH0.c **** {
  74              		.loc 1 58 0
  75              		.cfi_startproc
  76              		@ args = 0, pretend = 0, frame = 0
  77              		@ frame_needed = 1, uses_anonymous_args = 0
  78 0000 80B5     		push	{r7, lr}
  79              		.cfi_def_cfa_offset 8
  80              		.cfi_offset 7, -8
  81              		.cfi_offset 14, -4
  82 0002 00AF     		add	r7, sp, #0
  83              		.cfi_def_cfa_register 7
  59:Generated_Source\PSoC5/CapSense_Controller_AMuxCH0.c ****     CapSense_Controller_AMuxCH0_DisconnectAll();
  84              		.loc 1 59 0
  85 0004 FFF7FEFF 		bl	CapSense_Controller_AMuxCH0_DisconnectAll
  60:Generated_Source\PSoC5/CapSense_Controller_AMuxCH0.c **** }
  86              		.loc 1 60 0
  87 0008 00BF     		nop
  88 000a 80BD     		pop	{r7, pc}
  89              		.cfi_endproc
  90              	.LFE1:
  91              		.size	CapSense_Controller_AMuxCH0_Init, .-CapSense_Controller_AMuxCH0_Init
  92              		.section	.text.CapSense_Controller_AMuxCH0_Stop,"ax",%progbits
  93              		.align	2
  94              		.global	CapSense_Controller_AMuxCH0_Stop
  95              		.thumb
  96              		.thumb_func
  97              		.type	CapSense_Controller_AMuxCH0_Stop, %function
  98              	CapSense_Controller_AMuxCH0_Stop:
  99              	.LFB2:
  61:Generated_Source\PSoC5/CapSense_Controller_AMuxCH0.c **** 
  62:Generated_Source\PSoC5/CapSense_Controller_AMuxCH0.c **** 
  63:Generated_Source\PSoC5/CapSense_Controller_AMuxCH0.c **** /*******************************************************************************
  64:Generated_Source\PSoC5/CapSense_Controller_AMuxCH0.c **** * Function Name: CapSense_Controller_AMuxCH0_Stop
  65:Generated_Source\PSoC5/CapSense_Controller_AMuxCH0.c **** ********************************************************************************
  66:Generated_Source\PSoC5/CapSense_Controller_AMuxCH0.c **** * Summary:
  67:Generated_Source\PSoC5/CapSense_Controller_AMuxCH0.c **** *  Disconnect all channels.
  68:Generated_Source\PSoC5/CapSense_Controller_AMuxCH0.c **** *
  69:Generated_Source\PSoC5/CapSense_Controller_AMuxCH0.c **** * Parameters:
  70:Generated_Source\PSoC5/CapSense_Controller_AMuxCH0.c **** *  void
  71:Generated_Source\PSoC5/CapSense_Controller_AMuxCH0.c **** *
  72:Generated_Source\PSoC5/CapSense_Controller_AMuxCH0.c **** * Return:
ARM GAS  C:\Users\AHMADN~1\AppData\Local\Temp\cchc3eW8.s 			page 4


  73:Generated_Source\PSoC5/CapSense_Controller_AMuxCH0.c **** *  void
  74:Generated_Source\PSoC5/CapSense_Controller_AMuxCH0.c **** *
  75:Generated_Source\PSoC5/CapSense_Controller_AMuxCH0.c **** *******************************************************************************/
  76:Generated_Source\PSoC5/CapSense_Controller_AMuxCH0.c **** void CapSense_Controller_AMuxCH0_Stop(void)
  77:Generated_Source\PSoC5/CapSense_Controller_AMuxCH0.c **** {
 100              		.loc 1 77 0
 101              		.cfi_startproc
 102              		@ args = 0, pretend = 0, frame = 0
 103              		@ frame_needed = 1, uses_anonymous_args = 0
 104 0000 80B5     		push	{r7, lr}
 105              		.cfi_def_cfa_offset 8
 106              		.cfi_offset 7, -8
 107              		.cfi_offset 14, -4
 108 0002 00AF     		add	r7, sp, #0
 109              		.cfi_def_cfa_register 7
  78:Generated_Source\PSoC5/CapSense_Controller_AMuxCH0.c ****     CapSense_Controller_AMuxCH0_DisconnectAll();
 110              		.loc 1 78 0
 111 0004 FFF7FEFF 		bl	CapSense_Controller_AMuxCH0_DisconnectAll
  79:Generated_Source\PSoC5/CapSense_Controller_AMuxCH0.c **** }
 112              		.loc 1 79 0
 113 0008 00BF     		nop
 114 000a 80BD     		pop	{r7, pc}
 115              		.cfi_endproc
 116              	.LFE2:
 117              		.size	CapSense_Controller_AMuxCH0_Stop, .-CapSense_Controller_AMuxCH0_Stop
 118              		.section	.text.CapSense_Controller_AMuxCH0_Select,"ax",%progbits
 119              		.align	2
 120              		.global	CapSense_Controller_AMuxCH0_Select
 121              		.thumb
 122              		.thumb_func
 123              		.type	CapSense_Controller_AMuxCH0_Select, %function
 124              	CapSense_Controller_AMuxCH0_Select:
 125              	.LFB3:
  80:Generated_Source\PSoC5/CapSense_Controller_AMuxCH0.c **** 
  81:Generated_Source\PSoC5/CapSense_Controller_AMuxCH0.c **** 
  82:Generated_Source\PSoC5/CapSense_Controller_AMuxCH0.c **** /*******************************************************************************
  83:Generated_Source\PSoC5/CapSense_Controller_AMuxCH0.c **** * Function Name: CapSense_Controller_AMuxCH0_Select
  84:Generated_Source\PSoC5/CapSense_Controller_AMuxCH0.c **** ********************************************************************************
  85:Generated_Source\PSoC5/CapSense_Controller_AMuxCH0.c **** * Summary:
  86:Generated_Source\PSoC5/CapSense_Controller_AMuxCH0.c **** *  This functions first disconnects all channels then connects the given
  87:Generated_Source\PSoC5/CapSense_Controller_AMuxCH0.c **** *  channel.
  88:Generated_Source\PSoC5/CapSense_Controller_AMuxCH0.c **** *
  89:Generated_Source\PSoC5/CapSense_Controller_AMuxCH0.c **** * Parameters:
  90:Generated_Source\PSoC5/CapSense_Controller_AMuxCH0.c **** *  channel:  The channel to connect to the common terminal.
  91:Generated_Source\PSoC5/CapSense_Controller_AMuxCH0.c **** *
  92:Generated_Source\PSoC5/CapSense_Controller_AMuxCH0.c **** * Return:
  93:Generated_Source\PSoC5/CapSense_Controller_AMuxCH0.c **** *  void
  94:Generated_Source\PSoC5/CapSense_Controller_AMuxCH0.c **** *
  95:Generated_Source\PSoC5/CapSense_Controller_AMuxCH0.c **** *******************************************************************************/
  96:Generated_Source\PSoC5/CapSense_Controller_AMuxCH0.c **** void CapSense_Controller_AMuxCH0_Select(uint8 channel) CYREENTRANT
  97:Generated_Source\PSoC5/CapSense_Controller_AMuxCH0.c **** {
 126              		.loc 1 97 0
 127              		.cfi_startproc
 128              		@ args = 0, pretend = 0, frame = 8
 129              		@ frame_needed = 1, uses_anonymous_args = 0
 130 0000 80B5     		push	{r7, lr}
 131              		.cfi_def_cfa_offset 8
ARM GAS  C:\Users\AHMADN~1\AppData\Local\Temp\cchc3eW8.s 			page 5


 132              		.cfi_offset 7, -8
 133              		.cfi_offset 14, -4
 134 0002 82B0     		sub	sp, sp, #8
 135              		.cfi_def_cfa_offset 16
 136 0004 00AF     		add	r7, sp, #0
 137              		.cfi_def_cfa_register 7
 138 0006 0346     		mov	r3, r0
 139 0008 FB71     		strb	r3, [r7, #7]
  98:Generated_Source\PSoC5/CapSense_Controller_AMuxCH0.c ****     CapSense_Controller_AMuxCH0_DisconnectAll();        /* Disconnect all previous connections */
 140              		.loc 1 98 0
 141 000a FFF7FEFF 		bl	CapSense_Controller_AMuxCH0_DisconnectAll
  99:Generated_Source\PSoC5/CapSense_Controller_AMuxCH0.c ****     CapSense_Controller_AMuxCH0_Connect(channel);       /* Make the given selection */
 142              		.loc 1 99 0
 143 000e FB79     		ldrb	r3, [r7, #7]	@ zero_extendqisi2
 144 0010 1846     		mov	r0, r3
 145 0012 FFF7FEFF 		bl	CapSense_Controller_AMuxCH0_Set
 100:Generated_Source\PSoC5/CapSense_Controller_AMuxCH0.c ****     CapSense_Controller_AMuxCH0_lastChannel = channel;  /* Update last channel */
 146              		.loc 1 100 0
 147 0016 034A     		ldr	r2, .L7
 148 0018 FB79     		ldrb	r3, [r7, #7]
 149 001a 1370     		strb	r3, [r2]
 101:Generated_Source\PSoC5/CapSense_Controller_AMuxCH0.c **** }
 150              		.loc 1 101 0
 151 001c 00BF     		nop
 152 001e 0837     		adds	r7, r7, #8
 153              		.cfi_def_cfa_offset 8
 154 0020 BD46     		mov	sp, r7
 155              		.cfi_def_cfa_register 13
 156              		@ sp needed
 157 0022 80BD     		pop	{r7, pc}
 158              	.L8:
 159              		.align	2
 160              	.L7:
 161 0024 00000000 		.word	CapSense_Controller_AMuxCH0_lastChannel
 162              		.cfi_endproc
 163              	.LFE3:
 164              		.size	CapSense_Controller_AMuxCH0_Select, .-CapSense_Controller_AMuxCH0_Select
 165              		.section	.text.CapSense_Controller_AMuxCH0_FastSelect,"ax",%progbits
 166              		.align	2
 167              		.global	CapSense_Controller_AMuxCH0_FastSelect
 168              		.thumb
 169              		.thumb_func
 170              		.type	CapSense_Controller_AMuxCH0_FastSelect, %function
 171              	CapSense_Controller_AMuxCH0_FastSelect:
 172              	.LFB4:
 102:Generated_Source\PSoC5/CapSense_Controller_AMuxCH0.c **** 
 103:Generated_Source\PSoC5/CapSense_Controller_AMuxCH0.c **** 
 104:Generated_Source\PSoC5/CapSense_Controller_AMuxCH0.c **** /*******************************************************************************
 105:Generated_Source\PSoC5/CapSense_Controller_AMuxCH0.c **** * Function Name: CapSense_Controller_AMuxCH0_FastSelect
 106:Generated_Source\PSoC5/CapSense_Controller_AMuxCH0.c **** ********************************************************************************
 107:Generated_Source\PSoC5/CapSense_Controller_AMuxCH0.c **** * Summary:
 108:Generated_Source\PSoC5/CapSense_Controller_AMuxCH0.c **** *  This function first disconnects the last connection made with FastSelect or
 109:Generated_Source\PSoC5/CapSense_Controller_AMuxCH0.c **** *  Select, then connects the given channel. The FastSelect function is similar
 110:Generated_Source\PSoC5/CapSense_Controller_AMuxCH0.c **** *  to the Select function, except it is faster since it only disconnects the
 111:Generated_Source\PSoC5/CapSense_Controller_AMuxCH0.c **** *  last channel selected rather than all channels.
 112:Generated_Source\PSoC5/CapSense_Controller_AMuxCH0.c **** *
 113:Generated_Source\PSoC5/CapSense_Controller_AMuxCH0.c **** * Parameters:
ARM GAS  C:\Users\AHMADN~1\AppData\Local\Temp\cchc3eW8.s 			page 6


 114:Generated_Source\PSoC5/CapSense_Controller_AMuxCH0.c **** *  channel:  The channel to connect to the common terminal.
 115:Generated_Source\PSoC5/CapSense_Controller_AMuxCH0.c **** *
 116:Generated_Source\PSoC5/CapSense_Controller_AMuxCH0.c **** * Return:
 117:Generated_Source\PSoC5/CapSense_Controller_AMuxCH0.c **** *  void
 118:Generated_Source\PSoC5/CapSense_Controller_AMuxCH0.c **** *
 119:Generated_Source\PSoC5/CapSense_Controller_AMuxCH0.c **** *******************************************************************************/
 120:Generated_Source\PSoC5/CapSense_Controller_AMuxCH0.c **** void CapSense_Controller_AMuxCH0_FastSelect(uint8 channel) CYREENTRANT
 121:Generated_Source\PSoC5/CapSense_Controller_AMuxCH0.c **** {
 173              		.loc 1 121 0
 174              		.cfi_startproc
 175              		@ args = 0, pretend = 0, frame = 8
 176              		@ frame_needed = 1, uses_anonymous_args = 0
 177 0000 80B5     		push	{r7, lr}
 178              		.cfi_def_cfa_offset 8
 179              		.cfi_offset 7, -8
 180              		.cfi_offset 14, -4
 181 0002 82B0     		sub	sp, sp, #8
 182              		.cfi_def_cfa_offset 16
 183 0004 00AF     		add	r7, sp, #0
 184              		.cfi_def_cfa_register 7
 185 0006 0346     		mov	r3, r0
 186 0008 FB71     		strb	r3, [r7, #7]
 122:Generated_Source\PSoC5/CapSense_Controller_AMuxCH0.c ****     /* Disconnect the last valid channel */
 123:Generated_Source\PSoC5/CapSense_Controller_AMuxCH0.c ****     if( CapSense_Controller_AMuxCH0_lastChannel != CapSense_Controller_AMuxCH0_NULL_CHANNEL)   /* U
 187              		.loc 1 123 0
 188 000a 0A4B     		ldr	r3, .L11
 189 000c 1B78     		ldrb	r3, [r3]	@ zero_extendqisi2
 190 000e FF2B     		cmp	r3, #255
 191 0010 04D0     		beq	.L10
 124:Generated_Source\PSoC5/CapSense_Controller_AMuxCH0.c ****     {
 125:Generated_Source\PSoC5/CapSense_Controller_AMuxCH0.c ****         CapSense_Controller_AMuxCH0_Disconnect(CapSense_Controller_AMuxCH0_lastChannel);
 192              		.loc 1 125 0
 193 0012 084B     		ldr	r3, .L11
 194 0014 1B78     		ldrb	r3, [r3]	@ zero_extendqisi2
 195 0016 1846     		mov	r0, r3
 196 0018 FFF7FEFF 		bl	CapSense_Controller_AMuxCH0_Unset
 197              	.L10:
 126:Generated_Source\PSoC5/CapSense_Controller_AMuxCH0.c ****     }
 127:Generated_Source\PSoC5/CapSense_Controller_AMuxCH0.c **** 
 128:Generated_Source\PSoC5/CapSense_Controller_AMuxCH0.c ****     /* Make the new channel connection */
 129:Generated_Source\PSoC5/CapSense_Controller_AMuxCH0.c ****     CapSense_Controller_AMuxCH0_Connect(channel);
 198              		.loc 1 129 0
 199 001c FB79     		ldrb	r3, [r7, #7]	@ zero_extendqisi2
 200 001e 1846     		mov	r0, r3
 201 0020 FFF7FEFF 		bl	CapSense_Controller_AMuxCH0_Set
 130:Generated_Source\PSoC5/CapSense_Controller_AMuxCH0.c ****     CapSense_Controller_AMuxCH0_lastChannel = channel;   /* Update last channel */
 202              		.loc 1 130 0
 203 0024 034A     		ldr	r2, .L11
 204 0026 FB79     		ldrb	r3, [r7, #7]
 205 0028 1370     		strb	r3, [r2]
 131:Generated_Source\PSoC5/CapSense_Controller_AMuxCH0.c **** }
 206              		.loc 1 131 0
 207 002a 00BF     		nop
 208 002c 0837     		adds	r7, r7, #8
 209              		.cfi_def_cfa_offset 8
 210 002e BD46     		mov	sp, r7
 211              		.cfi_def_cfa_register 13
ARM GAS  C:\Users\AHMADN~1\AppData\Local\Temp\cchc3eW8.s 			page 7


 212              		@ sp needed
 213 0030 80BD     		pop	{r7, pc}
 214              	.L12:
 215 0032 00BF     		.align	2
 216              	.L11:
 217 0034 00000000 		.word	CapSense_Controller_AMuxCH0_lastChannel
 218              		.cfi_endproc
 219              	.LFE4:
 220              		.size	CapSense_Controller_AMuxCH0_FastSelect, .-CapSense_Controller_AMuxCH0_FastSelect
 221              		.section	.text.CapSense_Controller_AMuxCH0_DisconnectAll,"ax",%progbits
 222              		.align	2
 223              		.global	CapSense_Controller_AMuxCH0_DisconnectAll
 224              		.thumb
 225              		.thumb_func
 226              		.type	CapSense_Controller_AMuxCH0_DisconnectAll, %function
 227              	CapSense_Controller_AMuxCH0_DisconnectAll:
 228              	.LFB5:
 132:Generated_Source\PSoC5/CapSense_Controller_AMuxCH0.c **** 
 133:Generated_Source\PSoC5/CapSense_Controller_AMuxCH0.c **** 
 134:Generated_Source\PSoC5/CapSense_Controller_AMuxCH0.c **** #if(CapSense_Controller_AMuxCH0_MUXTYPE == CapSense_Controller_AMuxCH0_MUX_DIFF)
 135:Generated_Source\PSoC5/CapSense_Controller_AMuxCH0.c ****     /*******************************************************************************
 136:Generated_Source\PSoC5/CapSense_Controller_AMuxCH0.c ****     * Function Name: CapSense_Controller_AMuxCH0_Connect
 137:Generated_Source\PSoC5/CapSense_Controller_AMuxCH0.c ****     ********************************************************************************
 138:Generated_Source\PSoC5/CapSense_Controller_AMuxCH0.c ****     * Summary:
 139:Generated_Source\PSoC5/CapSense_Controller_AMuxCH0.c ****     *  This function connects the given channel without affecting other connections.
 140:Generated_Source\PSoC5/CapSense_Controller_AMuxCH0.c ****     *
 141:Generated_Source\PSoC5/CapSense_Controller_AMuxCH0.c ****     * Parameters:
 142:Generated_Source\PSoC5/CapSense_Controller_AMuxCH0.c ****     *  channel:  The channel to connect to the common terminal.
 143:Generated_Source\PSoC5/CapSense_Controller_AMuxCH0.c ****     *
 144:Generated_Source\PSoC5/CapSense_Controller_AMuxCH0.c ****     * Return:
 145:Generated_Source\PSoC5/CapSense_Controller_AMuxCH0.c ****     *  void
 146:Generated_Source\PSoC5/CapSense_Controller_AMuxCH0.c ****     *
 147:Generated_Source\PSoC5/CapSense_Controller_AMuxCH0.c ****     *******************************************************************************/
 148:Generated_Source\PSoC5/CapSense_Controller_AMuxCH0.c ****     void CapSense_Controller_AMuxCH0_Connect(uint8 channel) CYREENTRANT
 149:Generated_Source\PSoC5/CapSense_Controller_AMuxCH0.c ****     {
 150:Generated_Source\PSoC5/CapSense_Controller_AMuxCH0.c ****         CapSense_Controller_AMuxCH0_CYAMUXSIDE_A_Set(channel);
 151:Generated_Source\PSoC5/CapSense_Controller_AMuxCH0.c ****         CapSense_Controller_AMuxCH0_CYAMUXSIDE_B_Set(channel);
 152:Generated_Source\PSoC5/CapSense_Controller_AMuxCH0.c ****     }
 153:Generated_Source\PSoC5/CapSense_Controller_AMuxCH0.c ****     
 154:Generated_Source\PSoC5/CapSense_Controller_AMuxCH0.c ****     
 155:Generated_Source\PSoC5/CapSense_Controller_AMuxCH0.c ****     /*******************************************************************************
 156:Generated_Source\PSoC5/CapSense_Controller_AMuxCH0.c ****     * Function Name: CapSense_Controller_AMuxCH0_Disconnect
 157:Generated_Source\PSoC5/CapSense_Controller_AMuxCH0.c ****     ********************************************************************************
 158:Generated_Source\PSoC5/CapSense_Controller_AMuxCH0.c ****     * Summary:
 159:Generated_Source\PSoC5/CapSense_Controller_AMuxCH0.c ****     *  This function disconnects the given channel from the common or output
 160:Generated_Source\PSoC5/CapSense_Controller_AMuxCH0.c ****     *  terminal without affecting other connections.
 161:Generated_Source\PSoC5/CapSense_Controller_AMuxCH0.c ****     *
 162:Generated_Source\PSoC5/CapSense_Controller_AMuxCH0.c ****     * Parameters:
 163:Generated_Source\PSoC5/CapSense_Controller_AMuxCH0.c ****     *  channel:  The channel to disconnect from the common terminal.
 164:Generated_Source\PSoC5/CapSense_Controller_AMuxCH0.c ****     *
 165:Generated_Source\PSoC5/CapSense_Controller_AMuxCH0.c ****     * Return:
 166:Generated_Source\PSoC5/CapSense_Controller_AMuxCH0.c ****     *  void
 167:Generated_Source\PSoC5/CapSense_Controller_AMuxCH0.c ****     *
 168:Generated_Source\PSoC5/CapSense_Controller_AMuxCH0.c ****     *******************************************************************************/
 169:Generated_Source\PSoC5/CapSense_Controller_AMuxCH0.c ****     void CapSense_Controller_AMuxCH0_Disconnect(uint8 channel) CYREENTRANT
 170:Generated_Source\PSoC5/CapSense_Controller_AMuxCH0.c ****     {
 171:Generated_Source\PSoC5/CapSense_Controller_AMuxCH0.c ****         CapSense_Controller_AMuxCH0_CYAMUXSIDE_A_Unset(channel);
ARM GAS  C:\Users\AHMADN~1\AppData\Local\Temp\cchc3eW8.s 			page 8


 172:Generated_Source\PSoC5/CapSense_Controller_AMuxCH0.c ****         CapSense_Controller_AMuxCH0_CYAMUXSIDE_B_Unset(channel);
 173:Generated_Source\PSoC5/CapSense_Controller_AMuxCH0.c ****     }
 174:Generated_Source\PSoC5/CapSense_Controller_AMuxCH0.c ****     
 175:Generated_Source\PSoC5/CapSense_Controller_AMuxCH0.c **** #endif  /* End (CapSense_Controller_AMuxCH0_MUXTYPE == CapSense_Controller_AMuxCH0_MUX_DIFF) */
 176:Generated_Source\PSoC5/CapSense_Controller_AMuxCH0.c **** 
 177:Generated_Source\PSoC5/CapSense_Controller_AMuxCH0.c **** 
 178:Generated_Source\PSoC5/CapSense_Controller_AMuxCH0.c **** /*******************************************************************************
 179:Generated_Source\PSoC5/CapSense_Controller_AMuxCH0.c **** * Function Name: CapSense_Controller_AMuxCH0_DisconnectAll
 180:Generated_Source\PSoC5/CapSense_Controller_AMuxCH0.c **** ********************************************************************************
 181:Generated_Source\PSoC5/CapSense_Controller_AMuxCH0.c **** * Summary:
 182:Generated_Source\PSoC5/CapSense_Controller_AMuxCH0.c **** *  This function disconnects all channels.
 183:Generated_Source\PSoC5/CapSense_Controller_AMuxCH0.c **** *
 184:Generated_Source\PSoC5/CapSense_Controller_AMuxCH0.c **** * Parameters:
 185:Generated_Source\PSoC5/CapSense_Controller_AMuxCH0.c **** *  void
 186:Generated_Source\PSoC5/CapSense_Controller_AMuxCH0.c **** *
 187:Generated_Source\PSoC5/CapSense_Controller_AMuxCH0.c **** * Return:
 188:Generated_Source\PSoC5/CapSense_Controller_AMuxCH0.c **** *  void
 189:Generated_Source\PSoC5/CapSense_Controller_AMuxCH0.c **** *
 190:Generated_Source\PSoC5/CapSense_Controller_AMuxCH0.c **** *******************************************************************************/
 191:Generated_Source\PSoC5/CapSense_Controller_AMuxCH0.c **** void CapSense_Controller_AMuxCH0_DisconnectAll(void) CYREENTRANT
 192:Generated_Source\PSoC5/CapSense_Controller_AMuxCH0.c **** {
 229              		.loc 1 192 0
 230              		.cfi_startproc
 231              		@ args = 0, pretend = 0, frame = 8
 232              		@ frame_needed = 1, uses_anonymous_args = 0
 233 0000 80B5     		push	{r7, lr}
 234              		.cfi_def_cfa_offset 8
 235              		.cfi_offset 7, -8
 236              		.cfi_offset 14, -4
 237 0002 82B0     		sub	sp, sp, #8
 238              		.cfi_def_cfa_offset 16
 239 0004 00AF     		add	r7, sp, #0
 240              		.cfi_def_cfa_register 7
 193:Generated_Source\PSoC5/CapSense_Controller_AMuxCH0.c ****     uint8 chan;
 194:Generated_Source\PSoC5/CapSense_Controller_AMuxCH0.c **** 
 195:Generated_Source\PSoC5/CapSense_Controller_AMuxCH0.c ****     #if(CapSense_Controller_AMuxCH0_MUXTYPE == CapSense_Controller_AMuxCH0_MUX_SINGLE)
 196:Generated_Source\PSoC5/CapSense_Controller_AMuxCH0.c ****         for(chan = 0; chan < CapSense_Controller_AMuxCH0_CHANNELS ; chan++)
 241              		.loc 1 196 0
 242 0006 0023     		movs	r3, #0
 243 0008 FB71     		strb	r3, [r7, #7]
 244 000a 06E0     		b	.L14
 245              	.L15:
 197:Generated_Source\PSoC5/CapSense_Controller_AMuxCH0.c ****         {
 198:Generated_Source\PSoC5/CapSense_Controller_AMuxCH0.c ****             CapSense_Controller_AMuxCH0_Unset(chan);
 246              		.loc 1 198 0 discriminator 3
 247 000c FB79     		ldrb	r3, [r7, #7]	@ zero_extendqisi2
 248 000e 1846     		mov	r0, r3
 249 0010 FFF7FEFF 		bl	CapSense_Controller_AMuxCH0_Unset
 196:Generated_Source\PSoC5/CapSense_Controller_AMuxCH0.c ****         {
 250              		.loc 1 196 0 discriminator 3
 251 0014 FB79     		ldrb	r3, [r7, #7]	@ zero_extendqisi2
 252 0016 0133     		adds	r3, r3, #1
 253 0018 FB71     		strb	r3, [r7, #7]
 254              	.L14:
 196:Generated_Source\PSoC5/CapSense_Controller_AMuxCH0.c ****         {
 255              		.loc 1 196 0 is_stmt 0 discriminator 1
 256 001a FB79     		ldrb	r3, [r7, #7]	@ zero_extendqisi2
ARM GAS  C:\Users\AHMADN~1\AppData\Local\Temp\cchc3eW8.s 			page 9


 257 001c 062B     		cmp	r3, #6
 258 001e F5D9     		bls	.L15
 199:Generated_Source\PSoC5/CapSense_Controller_AMuxCH0.c ****         }
 200:Generated_Source\PSoC5/CapSense_Controller_AMuxCH0.c ****     #else
 201:Generated_Source\PSoC5/CapSense_Controller_AMuxCH0.c ****         for(chan = 0; chan < CapSense_Controller_AMuxCH0_CHANNELS ; chan++)
 202:Generated_Source\PSoC5/CapSense_Controller_AMuxCH0.c ****         {
 203:Generated_Source\PSoC5/CapSense_Controller_AMuxCH0.c ****             CapSense_Controller_AMuxCH0_CYAMUXSIDE_A_Unset(chan);
 204:Generated_Source\PSoC5/CapSense_Controller_AMuxCH0.c ****             CapSense_Controller_AMuxCH0_CYAMUXSIDE_B_Unset(chan);
 205:Generated_Source\PSoC5/CapSense_Controller_AMuxCH0.c ****         }
 206:Generated_Source\PSoC5/CapSense_Controller_AMuxCH0.c ****     #endif  /* End (CapSense_Controller_AMuxCH0_MUXTYPE == CapSense_Controller_AMuxCH0_MUX_SINGLE) 
 207:Generated_Source\PSoC5/CapSense_Controller_AMuxCH0.c **** }
 259              		.loc 1 207 0 is_stmt 1
 260 0020 00BF     		nop
 261 0022 0837     		adds	r7, r7, #8
 262              		.cfi_def_cfa_offset 8
 263 0024 BD46     		mov	sp, r7
 264              		.cfi_def_cfa_register 13
 265              		@ sp needed
 266 0026 80BD     		pop	{r7, pc}
 267              		.cfi_endproc
 268              	.LFE5:
 269              		.size	CapSense_Controller_AMuxCH0_DisconnectAll, .-CapSense_Controller_AMuxCH0_DisconnectAll
 270              		.text
 271              	.Letext0:
 272              		.file 2 "Generated_Source\\PSoC5\\cytypes.h"