ARM GAS  C:\Users\AHMADN~1\AppData\Local\Temp\ccioL7Db.s 			page 1


   1              		.syntax unified
   2              		.cpu cortex-m3
   3              		.fpu softvfp
   4              		.eabi_attribute 20, 1
   5              		.eabi_attribute 21, 1
   6              		.eabi_attribute 23, 3
   7              		.eabi_attribute 24, 1
   8              		.eabi_attribute 25, 1
   9              		.eabi_attribute 26, 1
  10              		.eabi_attribute 30, 6
  11              		.eabi_attribute 34, 1
  12              		.eabi_attribute 18, 4
  13              		.thumb
  14              		.syntax unified
  15              		.file	"HSYNC_PM.c"
  16              		.text
  17              	.Ltext0:
  18              		.cfi_sections	.debug_frame
  19              		.bss
  20              		.align	2
  21              	HSYNC_backup:
  22 0000 00000000 		.space	4
  23              		.section	.text.HSYNC_SaveConfig,"ax",%progbits
  24              		.align	2
  25              		.global	HSYNC_SaveConfig
  26              		.thumb
  27              		.thumb_func
  28              		.type	HSYNC_SaveConfig, %function
  29              	HSYNC_SaveConfig:
  30              	.LFB0:
  31              		.file 1 "Generated_Source\\PSoC5\\HSYNC_PM.c"
   1:Generated_Source\PSoC5/HSYNC_PM.c **** /*******************************************************************************
   2:Generated_Source\PSoC5/HSYNC_PM.c **** * File Name: HSYNC_PM.c
   3:Generated_Source\PSoC5/HSYNC_PM.c **** * Version 3.30
   4:Generated_Source\PSoC5/HSYNC_PM.c **** *
   5:Generated_Source\PSoC5/HSYNC_PM.c **** * Description:
   6:Generated_Source\PSoC5/HSYNC_PM.c **** *  This file provides the power management source code to API for the
   7:Generated_Source\PSoC5/HSYNC_PM.c **** *  PWM.
   8:Generated_Source\PSoC5/HSYNC_PM.c **** *
   9:Generated_Source\PSoC5/HSYNC_PM.c **** * Note:
  10:Generated_Source\PSoC5/HSYNC_PM.c **** *
  11:Generated_Source\PSoC5/HSYNC_PM.c **** ********************************************************************************
  12:Generated_Source\PSoC5/HSYNC_PM.c **** * Copyright 2008-2014, Cypress Semiconductor Corporation.  All rights reserved.
  13:Generated_Source\PSoC5/HSYNC_PM.c **** * You may use this file only in accordance with the license, terms, conditions,
  14:Generated_Source\PSoC5/HSYNC_PM.c **** * disclaimers, and limitations in the end user license agreement accompanying
  15:Generated_Source\PSoC5/HSYNC_PM.c **** * the software package with which this file was provided.
  16:Generated_Source\PSoC5/HSYNC_PM.c **** *******************************************************************************/
  17:Generated_Source\PSoC5/HSYNC_PM.c **** 
  18:Generated_Source\PSoC5/HSYNC_PM.c **** #include "HSYNC.h"
  19:Generated_Source\PSoC5/HSYNC_PM.c **** 
  20:Generated_Source\PSoC5/HSYNC_PM.c **** static HSYNC_backupStruct HSYNC_backup;
  21:Generated_Source\PSoC5/HSYNC_PM.c **** 
  22:Generated_Source\PSoC5/HSYNC_PM.c **** 
  23:Generated_Source\PSoC5/HSYNC_PM.c **** /*******************************************************************************
  24:Generated_Source\PSoC5/HSYNC_PM.c **** * Function Name: HSYNC_SaveConfig
  25:Generated_Source\PSoC5/HSYNC_PM.c **** ********************************************************************************
  26:Generated_Source\PSoC5/HSYNC_PM.c **** *
ARM GAS  C:\Users\AHMADN~1\AppData\Local\Temp\ccioL7Db.s 			page 2


  27:Generated_Source\PSoC5/HSYNC_PM.c **** * Summary:
  28:Generated_Source\PSoC5/HSYNC_PM.c **** *  Saves the current user configuration of the component.
  29:Generated_Source\PSoC5/HSYNC_PM.c **** *
  30:Generated_Source\PSoC5/HSYNC_PM.c **** * Parameters:
  31:Generated_Source\PSoC5/HSYNC_PM.c **** *  None
  32:Generated_Source\PSoC5/HSYNC_PM.c **** *
  33:Generated_Source\PSoC5/HSYNC_PM.c **** * Return:
  34:Generated_Source\PSoC5/HSYNC_PM.c **** *  None
  35:Generated_Source\PSoC5/HSYNC_PM.c **** *
  36:Generated_Source\PSoC5/HSYNC_PM.c **** * Global variables:
  37:Generated_Source\PSoC5/HSYNC_PM.c **** *  HSYNC_backup:  Variables of this global structure are modified to
  38:Generated_Source\PSoC5/HSYNC_PM.c **** *  store the values of non retention configuration registers when Sleep() API is
  39:Generated_Source\PSoC5/HSYNC_PM.c **** *  called.
  40:Generated_Source\PSoC5/HSYNC_PM.c **** *
  41:Generated_Source\PSoC5/HSYNC_PM.c **** *******************************************************************************/
  42:Generated_Source\PSoC5/HSYNC_PM.c **** void HSYNC_SaveConfig(void) 
  43:Generated_Source\PSoC5/HSYNC_PM.c **** {
  32              		.loc 1 43 0
  33              		.cfi_startproc
  34              		@ args = 0, pretend = 0, frame = 0
  35              		@ frame_needed = 1, uses_anonymous_args = 0
  36 0000 80B5     		push	{r7, lr}
  37              		.cfi_def_cfa_offset 8
  38              		.cfi_offset 7, -8
  39              		.cfi_offset 14, -4
  40 0002 00AF     		add	r7, sp, #0
  41              		.cfi_def_cfa_register 7
  44:Generated_Source\PSoC5/HSYNC_PM.c **** 
  45:Generated_Source\PSoC5/HSYNC_PM.c ****     #if(!HSYNC_UsingFixedFunction)
  46:Generated_Source\PSoC5/HSYNC_PM.c ****         #if(!HSYNC_PWMModeIsCenterAligned)
  47:Generated_Source\PSoC5/HSYNC_PM.c ****             HSYNC_backup.PWMPeriod = HSYNC_ReadPeriod();
  42              		.loc 1 47 0
  43 0004 FFF7FEFF 		bl	HSYNC_ReadPeriod
  44 0008 0346     		mov	r3, r0
  45 000a 1A46     		mov	r2, r3
  46 000c 074B     		ldr	r3, .L2
  47 000e 9A70     		strb	r2, [r3, #2]
  48:Generated_Source\PSoC5/HSYNC_PM.c ****         #endif /* (!HSYNC_PWMModeIsCenterAligned) */
  49:Generated_Source\PSoC5/HSYNC_PM.c ****         HSYNC_backup.PWMUdb = HSYNC_ReadCounter();
  48              		.loc 1 49 0
  49 0010 FFF7FEFF 		bl	HSYNC_ReadCounter
  50 0014 0346     		mov	r3, r0
  51 0016 1A46     		mov	r2, r3
  52 0018 044B     		ldr	r3, .L2
  53 001a 5A70     		strb	r2, [r3, #1]
  50:Generated_Source\PSoC5/HSYNC_PM.c ****         #if (HSYNC_UseStatus)
  51:Generated_Source\PSoC5/HSYNC_PM.c ****             HSYNC_backup.InterruptMaskValue = HSYNC_STATUS_MASK;
  52:Generated_Source\PSoC5/HSYNC_PM.c ****         #endif /* (HSYNC_UseStatus) */
  53:Generated_Source\PSoC5/HSYNC_PM.c **** 
  54:Generated_Source\PSoC5/HSYNC_PM.c ****         #if(HSYNC_DeadBandMode == HSYNC__B_PWM__DBM_256_CLOCKS || \
  55:Generated_Source\PSoC5/HSYNC_PM.c ****             HSYNC_DeadBandMode == HSYNC__B_PWM__DBM_2_4_CLOCKS)
  56:Generated_Source\PSoC5/HSYNC_PM.c ****             HSYNC_backup.PWMdeadBandValue = HSYNC_ReadDeadTime();
  57:Generated_Source\PSoC5/HSYNC_PM.c ****         #endif /*  deadband count is either 2-4 clocks or 256 clocks */
  58:Generated_Source\PSoC5/HSYNC_PM.c **** 
  59:Generated_Source\PSoC5/HSYNC_PM.c ****         #if(HSYNC_KillModeMinTime)
  60:Generated_Source\PSoC5/HSYNC_PM.c ****              HSYNC_backup.PWMKillCounterPeriod = HSYNC_ReadKillTime();
  61:Generated_Source\PSoC5/HSYNC_PM.c ****         #endif /* (HSYNC_KillModeMinTime) */
ARM GAS  C:\Users\AHMADN~1\AppData\Local\Temp\ccioL7Db.s 			page 3


  62:Generated_Source\PSoC5/HSYNC_PM.c **** 
  63:Generated_Source\PSoC5/HSYNC_PM.c ****         #if(HSYNC_UseControl)
  64:Generated_Source\PSoC5/HSYNC_PM.c ****             HSYNC_backup.PWMControlRegister = HSYNC_ReadControlRegister();
  54              		.loc 1 64 0
  55 001c FFF7FEFF 		bl	HSYNC_ReadControlRegister
  56 0020 0346     		mov	r3, r0
  57 0022 1A46     		mov	r2, r3
  58 0024 014B     		ldr	r3, .L2
  59 0026 DA70     		strb	r2, [r3, #3]
  65:Generated_Source\PSoC5/HSYNC_PM.c ****         #endif /* (HSYNC_UseControl) */
  66:Generated_Source\PSoC5/HSYNC_PM.c ****     #endif  /* (!HSYNC_UsingFixedFunction) */
  67:Generated_Source\PSoC5/HSYNC_PM.c **** }
  60              		.loc 1 67 0
  61 0028 00BF     		nop
  62 002a 80BD     		pop	{r7, pc}
  63              	.L3:
  64              		.align	2
  65              	.L2:
  66 002c 00000000 		.word	HSYNC_backup
  67              		.cfi_endproc
  68              	.LFE0:
  69              		.size	HSYNC_SaveConfig, .-HSYNC_SaveConfig
  70              		.section	.text.HSYNC_RestoreConfig,"ax",%progbits
  71              		.align	2
  72              		.global	HSYNC_RestoreConfig
  73              		.thumb
  74              		.thumb_func
  75              		.type	HSYNC_RestoreConfig, %function
  76              	HSYNC_RestoreConfig:
  77              	.LFB1:
  68:Generated_Source\PSoC5/HSYNC_PM.c **** 
  69:Generated_Source\PSoC5/HSYNC_PM.c **** 
  70:Generated_Source\PSoC5/HSYNC_PM.c **** /*******************************************************************************
  71:Generated_Source\PSoC5/HSYNC_PM.c **** * Function Name: HSYNC_RestoreConfig
  72:Generated_Source\PSoC5/HSYNC_PM.c **** ********************************************************************************
  73:Generated_Source\PSoC5/HSYNC_PM.c **** *
  74:Generated_Source\PSoC5/HSYNC_PM.c **** * Summary:
  75:Generated_Source\PSoC5/HSYNC_PM.c **** *  Restores the current user configuration of the component.
  76:Generated_Source\PSoC5/HSYNC_PM.c **** *
  77:Generated_Source\PSoC5/HSYNC_PM.c **** * Parameters:
  78:Generated_Source\PSoC5/HSYNC_PM.c **** *  None
  79:Generated_Source\PSoC5/HSYNC_PM.c **** *
  80:Generated_Source\PSoC5/HSYNC_PM.c **** * Return:
  81:Generated_Source\PSoC5/HSYNC_PM.c **** *  None
  82:Generated_Source\PSoC5/HSYNC_PM.c **** *
  83:Generated_Source\PSoC5/HSYNC_PM.c **** * Global variables:
  84:Generated_Source\PSoC5/HSYNC_PM.c **** *  HSYNC_backup:  Variables of this global structure are used to
  85:Generated_Source\PSoC5/HSYNC_PM.c **** *  restore the values of non retention registers on wakeup from sleep mode.
  86:Generated_Source\PSoC5/HSYNC_PM.c **** *
  87:Generated_Source\PSoC5/HSYNC_PM.c **** *******************************************************************************/
  88:Generated_Source\PSoC5/HSYNC_PM.c **** void HSYNC_RestoreConfig(void) 
  89:Generated_Source\PSoC5/HSYNC_PM.c **** {
  78              		.loc 1 89 0
  79              		.cfi_startproc
  80              		@ args = 0, pretend = 0, frame = 0
  81              		@ frame_needed = 1, uses_anonymous_args = 0
  82 0000 80B5     		push	{r7, lr}
ARM GAS  C:\Users\AHMADN~1\AppData\Local\Temp\ccioL7Db.s 			page 4


  83              		.cfi_def_cfa_offset 8
  84              		.cfi_offset 7, -8
  85              		.cfi_offset 14, -4
  86 0002 00AF     		add	r7, sp, #0
  87              		.cfi_def_cfa_register 7
  90:Generated_Source\PSoC5/HSYNC_PM.c ****         #if(!HSYNC_UsingFixedFunction)
  91:Generated_Source\PSoC5/HSYNC_PM.c ****             #if(!HSYNC_PWMModeIsCenterAligned)
  92:Generated_Source\PSoC5/HSYNC_PM.c ****                 HSYNC_WritePeriod(HSYNC_backup.PWMPeriod);
  88              		.loc 1 92 0
  89 0004 084B     		ldr	r3, .L5
  90 0006 9B78     		ldrb	r3, [r3, #2]	@ zero_extendqisi2
  91 0008 1846     		mov	r0, r3
  92 000a FFF7FEFF 		bl	HSYNC_WritePeriod
  93:Generated_Source\PSoC5/HSYNC_PM.c ****             #endif /* (!HSYNC_PWMModeIsCenterAligned) */
  94:Generated_Source\PSoC5/HSYNC_PM.c **** 
  95:Generated_Source\PSoC5/HSYNC_PM.c ****             HSYNC_WriteCounter(HSYNC_backup.PWMUdb);
  93              		.loc 1 95 0
  94 000e 064B     		ldr	r3, .L5
  95 0010 5B78     		ldrb	r3, [r3, #1]	@ zero_extendqisi2
  96 0012 1846     		mov	r0, r3
  97 0014 FFF7FEFF 		bl	HSYNC_WriteCounter
  96:Generated_Source\PSoC5/HSYNC_PM.c **** 
  97:Generated_Source\PSoC5/HSYNC_PM.c ****             #if (HSYNC_UseStatus)
  98:Generated_Source\PSoC5/HSYNC_PM.c ****                 HSYNC_STATUS_MASK = HSYNC_backup.InterruptMaskValue;
  99:Generated_Source\PSoC5/HSYNC_PM.c ****             #endif /* (HSYNC_UseStatus) */
 100:Generated_Source\PSoC5/HSYNC_PM.c **** 
 101:Generated_Source\PSoC5/HSYNC_PM.c ****             #if(HSYNC_DeadBandMode == HSYNC__B_PWM__DBM_256_CLOCKS || \
 102:Generated_Source\PSoC5/HSYNC_PM.c ****                 HSYNC_DeadBandMode == HSYNC__B_PWM__DBM_2_4_CLOCKS)
 103:Generated_Source\PSoC5/HSYNC_PM.c ****                 HSYNC_WriteDeadTime(HSYNC_backup.PWMdeadBandValue);
 104:Generated_Source\PSoC5/HSYNC_PM.c ****             #endif /* deadband count is either 2-4 clocks or 256 clocks */
 105:Generated_Source\PSoC5/HSYNC_PM.c **** 
 106:Generated_Source\PSoC5/HSYNC_PM.c ****             #if(HSYNC_KillModeMinTime)
 107:Generated_Source\PSoC5/HSYNC_PM.c ****                 HSYNC_WriteKillTime(HSYNC_backup.PWMKillCounterPeriod);
 108:Generated_Source\PSoC5/HSYNC_PM.c ****             #endif /* (HSYNC_KillModeMinTime) */
 109:Generated_Source\PSoC5/HSYNC_PM.c **** 
 110:Generated_Source\PSoC5/HSYNC_PM.c ****             #if(HSYNC_UseControl)
 111:Generated_Source\PSoC5/HSYNC_PM.c ****                 HSYNC_WriteControlRegister(HSYNC_backup.PWMControlRegister);
  98              		.loc 1 111 0
  99 0018 034B     		ldr	r3, .L5
 100 001a DB78     		ldrb	r3, [r3, #3]	@ zero_extendqisi2
 101 001c 1846     		mov	r0, r3
 102 001e FFF7FEFF 		bl	HSYNC_WriteControlRegister
 112:Generated_Source\PSoC5/HSYNC_PM.c ****             #endif /* (HSYNC_UseControl) */
 113:Generated_Source\PSoC5/HSYNC_PM.c ****         #endif  /* (!HSYNC_UsingFixedFunction) */
 114:Generated_Source\PSoC5/HSYNC_PM.c ****     }
 103              		.loc 1 114 0
 104 0022 00BF     		nop
 105 0024 80BD     		pop	{r7, pc}
 106              	.L6:
 107 0026 00BF     		.align	2
 108              	.L5:
 109 0028 00000000 		.word	HSYNC_backup
 110              		.cfi_endproc
 111              	.LFE1:
 112              		.size	HSYNC_RestoreConfig, .-HSYNC_RestoreConfig
 113              		.section	.text.HSYNC_Sleep,"ax",%progbits
 114              		.align	2
ARM GAS  C:\Users\AHMADN~1\AppData\Local\Temp\ccioL7Db.s 			page 5


 115              		.global	HSYNC_Sleep
 116              		.thumb
 117              		.thumb_func
 118              		.type	HSYNC_Sleep, %function
 119              	HSYNC_Sleep:
 120              	.LFB2:
 115:Generated_Source\PSoC5/HSYNC_PM.c **** 
 116:Generated_Source\PSoC5/HSYNC_PM.c **** 
 117:Generated_Source\PSoC5/HSYNC_PM.c **** /*******************************************************************************
 118:Generated_Source\PSoC5/HSYNC_PM.c **** * Function Name: HSYNC_Sleep
 119:Generated_Source\PSoC5/HSYNC_PM.c **** ********************************************************************************
 120:Generated_Source\PSoC5/HSYNC_PM.c **** *
 121:Generated_Source\PSoC5/HSYNC_PM.c **** * Summary:
 122:Generated_Source\PSoC5/HSYNC_PM.c **** *  Disables block's operation and saves the user configuration. Should be called
 123:Generated_Source\PSoC5/HSYNC_PM.c **** *  just prior to entering sleep.
 124:Generated_Source\PSoC5/HSYNC_PM.c **** *
 125:Generated_Source\PSoC5/HSYNC_PM.c **** * Parameters:
 126:Generated_Source\PSoC5/HSYNC_PM.c **** *  None
 127:Generated_Source\PSoC5/HSYNC_PM.c **** *
 128:Generated_Source\PSoC5/HSYNC_PM.c **** * Return:
 129:Generated_Source\PSoC5/HSYNC_PM.c **** *  None
 130:Generated_Source\PSoC5/HSYNC_PM.c **** *
 131:Generated_Source\PSoC5/HSYNC_PM.c **** * Global variables:
 132:Generated_Source\PSoC5/HSYNC_PM.c **** *  HSYNC_backup.PWMEnableState:  Is modified depending on the enable
 133:Generated_Source\PSoC5/HSYNC_PM.c **** *  state of the block before entering sleep mode.
 134:Generated_Source\PSoC5/HSYNC_PM.c **** *
 135:Generated_Source\PSoC5/HSYNC_PM.c **** *******************************************************************************/
 136:Generated_Source\PSoC5/HSYNC_PM.c **** void HSYNC_Sleep(void) 
 137:Generated_Source\PSoC5/HSYNC_PM.c **** {
 121              		.loc 1 137 0
 122              		.cfi_startproc
 123              		@ args = 0, pretend = 0, frame = 0
 124              		@ frame_needed = 1, uses_anonymous_args = 0
 125 0000 80B5     		push	{r7, lr}
 126              		.cfi_def_cfa_offset 8
 127              		.cfi_offset 7, -8
 128              		.cfi_offset 14, -4
 129 0002 00AF     		add	r7, sp, #0
 130              		.cfi_def_cfa_register 7
 138:Generated_Source\PSoC5/HSYNC_PM.c ****     #if(HSYNC_UseControl)
 139:Generated_Source\PSoC5/HSYNC_PM.c ****         if(HSYNC_CTRL_ENABLE == (HSYNC_CONTROL & HSYNC_CTRL_ENABLE))
 131              		.loc 1 139 0
 132 0004 094B     		ldr	r3, .L10
 133 0006 1B78     		ldrb	r3, [r3]
 134 0008 DBB2     		uxtb	r3, r3
 135 000a 5BB2     		sxtb	r3, r3
 136 000c 002B     		cmp	r3, #0
 137 000e 03DA     		bge	.L8
 140:Generated_Source\PSoC5/HSYNC_PM.c ****         {
 141:Generated_Source\PSoC5/HSYNC_PM.c ****             /*Component is enabled */
 142:Generated_Source\PSoC5/HSYNC_PM.c ****             HSYNC_backup.PWMEnableState = 1u;
 138              		.loc 1 142 0
 139 0010 074B     		ldr	r3, .L10+4
 140 0012 0122     		movs	r2, #1
 141 0014 1A70     		strb	r2, [r3]
 142 0016 02E0     		b	.L9
 143              	.L8:
ARM GAS  C:\Users\AHMADN~1\AppData\Local\Temp\ccioL7Db.s 			page 6


 143:Generated_Source\PSoC5/HSYNC_PM.c ****         }
 144:Generated_Source\PSoC5/HSYNC_PM.c ****         else
 145:Generated_Source\PSoC5/HSYNC_PM.c ****         {
 146:Generated_Source\PSoC5/HSYNC_PM.c ****             /* Component is disabled */
 147:Generated_Source\PSoC5/HSYNC_PM.c ****             HSYNC_backup.PWMEnableState = 0u;
 144              		.loc 1 147 0
 145 0018 054B     		ldr	r3, .L10+4
 146 001a 0022     		movs	r2, #0
 147 001c 1A70     		strb	r2, [r3]
 148              	.L9:
 148:Generated_Source\PSoC5/HSYNC_PM.c ****         }
 149:Generated_Source\PSoC5/HSYNC_PM.c ****     #endif /* (HSYNC_UseControl) */
 150:Generated_Source\PSoC5/HSYNC_PM.c **** 
 151:Generated_Source\PSoC5/HSYNC_PM.c ****     /* Stop component */
 152:Generated_Source\PSoC5/HSYNC_PM.c ****     HSYNC_Stop();
 149              		.loc 1 152 0
 150 001e FFF7FEFF 		bl	HSYNC_Stop
 153:Generated_Source\PSoC5/HSYNC_PM.c **** 
 154:Generated_Source\PSoC5/HSYNC_PM.c ****     /* Save registers configuration */
 155:Generated_Source\PSoC5/HSYNC_PM.c ****     HSYNC_SaveConfig();
 151              		.loc 1 155 0
 152 0022 FFF7FEFF 		bl	HSYNC_SaveConfig
 156:Generated_Source\PSoC5/HSYNC_PM.c **** }
 153              		.loc 1 156 0
 154 0026 00BF     		nop
 155 0028 80BD     		pop	{r7, pc}
 156              	.L11:
 157 002a 00BF     		.align	2
 158              	.L10:
 159 002c 76650040 		.word	1073767798
 160 0030 00000000 		.word	HSYNC_backup
 161              		.cfi_endproc
 162              	.LFE2:
 163              		.size	HSYNC_Sleep, .-HSYNC_Sleep
 164              		.section	.text.HSYNC_Wakeup,"ax",%progbits
 165              		.align	2
 166              		.global	HSYNC_Wakeup
 167              		.thumb
 168              		.thumb_func
 169              		.type	HSYNC_Wakeup, %function
 170              	HSYNC_Wakeup:
 171              	.LFB3:
 157:Generated_Source\PSoC5/HSYNC_PM.c **** 
 158:Generated_Source\PSoC5/HSYNC_PM.c **** 
 159:Generated_Source\PSoC5/HSYNC_PM.c **** /*******************************************************************************
 160:Generated_Source\PSoC5/HSYNC_PM.c **** * Function Name: HSYNC_Wakeup
 161:Generated_Source\PSoC5/HSYNC_PM.c **** ********************************************************************************
 162:Generated_Source\PSoC5/HSYNC_PM.c **** *
 163:Generated_Source\PSoC5/HSYNC_PM.c **** * Summary:
 164:Generated_Source\PSoC5/HSYNC_PM.c **** *  Restores and enables the user configuration. Should be called just after
 165:Generated_Source\PSoC5/HSYNC_PM.c **** *  awaking from sleep.
 166:Generated_Source\PSoC5/HSYNC_PM.c **** *
 167:Generated_Source\PSoC5/HSYNC_PM.c **** * Parameters:
 168:Generated_Source\PSoC5/HSYNC_PM.c **** *  None
 169:Generated_Source\PSoC5/HSYNC_PM.c **** *
 170:Generated_Source\PSoC5/HSYNC_PM.c **** * Return:
 171:Generated_Source\PSoC5/HSYNC_PM.c **** *  None
ARM GAS  C:\Users\AHMADN~1\AppData\Local\Temp\ccioL7Db.s 			page 7


 172:Generated_Source\PSoC5/HSYNC_PM.c **** *
 173:Generated_Source\PSoC5/HSYNC_PM.c **** * Global variables:
 174:Generated_Source\PSoC5/HSYNC_PM.c **** *  HSYNC_backup.pwmEnable:  Is used to restore the enable state of
 175:Generated_Source\PSoC5/HSYNC_PM.c **** *  block on wakeup from sleep mode.
 176:Generated_Source\PSoC5/HSYNC_PM.c **** *
 177:Generated_Source\PSoC5/HSYNC_PM.c **** *******************************************************************************/
 178:Generated_Source\PSoC5/HSYNC_PM.c **** void HSYNC_Wakeup(void) 
 179:Generated_Source\PSoC5/HSYNC_PM.c **** {
 172              		.loc 1 179 0
 173              		.cfi_startproc
 174              		@ args = 0, pretend = 0, frame = 0
 175              		@ frame_needed = 1, uses_anonymous_args = 0
 176 0000 80B5     		push	{r7, lr}
 177              		.cfi_def_cfa_offset 8
 178              		.cfi_offset 7, -8
 179              		.cfi_offset 14, -4
 180 0002 00AF     		add	r7, sp, #0
 181              		.cfi_def_cfa_register 7
 180:Generated_Source\PSoC5/HSYNC_PM.c ****      /* Restore registers values */
 181:Generated_Source\PSoC5/HSYNC_PM.c ****     HSYNC_RestoreConfig();
 182              		.loc 1 181 0
 183 0004 FFF7FEFF 		bl	HSYNC_RestoreConfig
 182:Generated_Source\PSoC5/HSYNC_PM.c **** 
 183:Generated_Source\PSoC5/HSYNC_PM.c ****     if(HSYNC_backup.PWMEnableState != 0u)
 184              		.loc 1 183 0
 185 0008 034B     		ldr	r3, .L15
 186 000a 1B78     		ldrb	r3, [r3]	@ zero_extendqisi2
 187 000c 002B     		cmp	r3, #0
 188 000e 01D0     		beq	.L14
 184:Generated_Source\PSoC5/HSYNC_PM.c ****     {
 185:Generated_Source\PSoC5/HSYNC_PM.c ****         /* Enable component's operation */
 186:Generated_Source\PSoC5/HSYNC_PM.c ****         HSYNC_Enable();
 189              		.loc 1 186 0
 190 0010 FFF7FEFF 		bl	HSYNC_Enable
 191              	.L14:
 187:Generated_Source\PSoC5/HSYNC_PM.c ****     } /* Do nothing if component's block was disabled before */
 188:Generated_Source\PSoC5/HSYNC_PM.c **** 
 189:Generated_Source\PSoC5/HSYNC_PM.c **** }
 192              		.loc 1 189 0
 193 0014 00BF     		nop
 194 0016 80BD     		pop	{r7, pc}
 195              	.L16:
 196              		.align	2
 197              	.L15:
 198 0018 00000000 		.word	HSYNC_backup
 199              		.cfi_endproc
 200              	.LFE3:
 201              		.size	HSYNC_Wakeup, .-HSYNC_Wakeup
 202              		.text
 203              	.Letext0:
 204              		.file 2 "Generated_Source\\PSoC5\\cytypes.h"
 205              		.file 3 "Generated_Source\\PSoC5\\HSYNC.h"